Component: ARM Compiler 5.06 update 7 (build 960) Tool: armlink [4d3601]

==============================================================================

Section Cross References

    system_gd32f10x.o(i.SystemInit) refers to system_gd32f10x.o(i.system_clock_config) for system_clock_config
    system_gd32f10x.o(i.SystemInit) refers to gd32f10x_misc.o(i.nvic_vector_table_set) for nvic_vector_table_set
    system_gd32f10x.o(i.system_clock_config) refers to system_gd32f10x.o(i.system_clock_108m_hxtal) for system_clock_108m_hxtal
    startup_gd32f10x_hd.o(STACK) refers (Special) to heapauxi.o(.text) for __use_two_region_memory
    startup_gd32f10x_hd.o(HEAP) refers (Special) to heapauxi.o(.text) for __use_two_region_memory
    startup_gd32f10x_hd.o(RESET) refers (Special) to heapauxi.o(.text) for __use_two_region_memory
    startup_gd32f10x_hd.o(RESET) refers to startup_gd32f10x_hd.o(STACK) for __initial_sp
    startup_gd32f10x_hd.o(RESET) refers to startup_gd32f10x_hd.o(.text) for Reset_Handler
    startup_gd32f10x_hd.o(RESET) refers to gd32f10x_it.o(i.NMI_Handler) for NMI_Handler
    startup_gd32f10x_hd.o(RESET) refers to gd32f10x_it.o(i.HardFault_Handler) for HardFault_Handler
    startup_gd32f10x_hd.o(RESET) refers to gd32f10x_it.o(i.MemManage_Handler) for MemManage_Handler
    startup_gd32f10x_hd.o(RESET) refers to gd32f10x_it.o(i.BusFault_Handler) for BusFault_Handler
    startup_gd32f10x_hd.o(RESET) refers to gd32f10x_it.o(i.UsageFault_Handler) for UsageFault_Handler
    startup_gd32f10x_hd.o(RESET) refers to gd32f10x_it.o(i.DebugMon_Handler) for DebugMon_Handler
    startup_gd32f10x_hd.o(RESET) refers to gd32f10x_it.o(i.SysTick_Handler) for SysTick_Handler
    startup_gd32f10x_hd.o(RESET) refers to bsp_timer.o(i.TIMER0_UP_IRQHandler) for TIMER0_UP_IRQHandler
    startup_gd32f10x_hd.o(RESET) refers to bsp_timer.o(i.TIMER1_IRQHandler) for TIMER1_IRQHandler
    startup_gd32f10x_hd.o(RESET) refers to gd32f10x_it.o(i.USART0_IRQHandler) for USART0_IRQHandler
    startup_gd32f10x_hd.o(RESET) refers to gd32f10x_it.o(i.USART1_IRQHandler) for USART1_IRQHandler
    startup_gd32f10x_hd.o(RESET) refers to gd32f10x_it.o(i.USART2_IRQHandler) for USART2_IRQHandler
    startup_gd32f10x_hd.o(RESET) refers to gd32f10x_it.o(i.UART3_IRQHandler) for UART3_IRQHandler
    startup_gd32f10x_hd.o(RESET) refers to bsp_timer.o(i.TIMER5_IRQHandler) for TIMER5_IRQHandler
    startup_gd32f10x_hd.o(.text) refers (Special) to heapauxi.o(.text) for __use_two_region_memory
    startup_gd32f10x_hd.o(.text) refers to system_gd32f10x.o(i.SystemInit) for SystemInit
    startup_gd32f10x_hd.o(.text) refers to __main.o(!!!main) for __main
    startup_gd32f10x_hd.o(.text) refers to startup_gd32f10x_hd.o(HEAP) for Heap_Mem
    startup_gd32f10x_hd.o(.text) refers to startup_gd32f10x_hd.o(STACK) for Stack_Mem
    gd32f10x_adc.o(i.adc_deinit) refers to gd32f10x_rcu.o(i.rcu_periph_reset_enable) for rcu_periph_reset_enable
    gd32f10x_adc.o(i.adc_deinit) refers to gd32f10x_rcu.o(i.rcu_periph_reset_disable) for rcu_periph_reset_disable
    gd32f10x_bkp.o(i.bkp_deinit) refers to gd32f10x_rcu.o(i.rcu_bkp_reset_enable) for rcu_bkp_reset_enable
    gd32f10x_bkp.o(i.bkp_deinit) refers to gd32f10x_rcu.o(i.rcu_bkp_reset_disable) for rcu_bkp_reset_disable
    gd32f10x_can.o(i.can_debug_freeze_disable) refers to gd32f10x_dbg.o(i.dbg_periph_enable) for dbg_periph_enable
    gd32f10x_can.o(i.can_debug_freeze_enable) refers to gd32f10x_dbg.o(i.dbg_periph_enable) for dbg_periph_enable
    gd32f10x_can.o(i.can_deinit) refers to gd32f10x_rcu.o(i.rcu_periph_reset_enable) for rcu_periph_reset_enable
    gd32f10x_can.o(i.can_deinit) refers to gd32f10x_rcu.o(i.rcu_periph_reset_disable) for rcu_periph_reset_disable
    gd32f10x_can.o(i.can_interrupt_flag_get) refers to gd32f10x_can.o(i.can_receive_message_length_get) for can_receive_message_length_get
    gd32f10x_can.o(i.can_interrupt_flag_get) refers to gd32f10x_can.o(i.can_error_get) for can_error_get
    gd32f10x_dac.o(i.dac_deinit) refers to gd32f10x_rcu.o(i.rcu_periph_reset_enable) for rcu_periph_reset_enable
    gd32f10x_dac.o(i.dac_deinit) refers to gd32f10x_rcu.o(i.rcu_periph_reset_disable) for rcu_periph_reset_disable
    gd32f10x_dma.o(i.dma_channel_disable) refers to gd32f10x_dma.o(i.dma_periph_and_channel_check) for dma_periph_and_channel_check
    gd32f10x_dma.o(i.dma_channel_enable) refers to gd32f10x_dma.o(i.dma_periph_and_channel_check) for dma_periph_and_channel_check
    gd32f10x_dma.o(i.dma_circulation_disable) refers to gd32f10x_dma.o(i.dma_periph_and_channel_check) for dma_periph_and_channel_check
    gd32f10x_dma.o(i.dma_circulation_enable) refers to gd32f10x_dma.o(i.dma_periph_and_channel_check) for dma_periph_and_channel_check
    gd32f10x_dma.o(i.dma_deinit) refers to gd32f10x_dma.o(i.dma_periph_and_channel_check) for dma_periph_and_channel_check
    gd32f10x_dma.o(i.dma_init) refers to gd32f10x_dma.o(i.dma_periph_and_channel_check) for dma_periph_and_channel_check
    gd32f10x_dma.o(i.dma_interrupt_disable) refers to gd32f10x_dma.o(i.dma_periph_and_channel_check) for dma_periph_and_channel_check
    gd32f10x_dma.o(i.dma_interrupt_enable) refers to gd32f10x_dma.o(i.dma_periph_and_channel_check) for dma_periph_and_channel_check
    gd32f10x_dma.o(i.dma_memory_address_config) refers to gd32f10x_dma.o(i.dma_periph_and_channel_check) for dma_periph_and_channel_check
    gd32f10x_dma.o(i.dma_memory_increase_disable) refers to gd32f10x_dma.o(i.dma_periph_and_channel_check) for dma_periph_and_channel_check
    gd32f10x_dma.o(i.dma_memory_increase_enable) refers to gd32f10x_dma.o(i.dma_periph_and_channel_check) for dma_periph_and_channel_check
    gd32f10x_dma.o(i.dma_memory_to_memory_disable) refers to gd32f10x_dma.o(i.dma_periph_and_channel_check) for dma_periph_and_channel_check
    gd32f10x_dma.o(i.dma_memory_to_memory_enable) refers to gd32f10x_dma.o(i.dma_periph_and_channel_check) for dma_periph_and_channel_check
    gd32f10x_dma.o(i.dma_memory_width_config) refers to gd32f10x_dma.o(i.dma_periph_and_channel_check) for dma_periph_and_channel_check
    gd32f10x_dma.o(i.dma_periph_address_config) refers to gd32f10x_dma.o(i.dma_periph_and_channel_check) for dma_periph_and_channel_check
    gd32f10x_dma.o(i.dma_periph_increase_disable) refers to gd32f10x_dma.o(i.dma_periph_and_channel_check) for dma_periph_and_channel_check
    gd32f10x_dma.o(i.dma_periph_increase_enable) refers to gd32f10x_dma.o(i.dma_periph_and_channel_check) for dma_periph_and_channel_check
    gd32f10x_dma.o(i.dma_periph_width_config) refers to gd32f10x_dma.o(i.dma_periph_and_channel_check) for dma_periph_and_channel_check
    gd32f10x_dma.o(i.dma_priority_config) refers to gd32f10x_dma.o(i.dma_periph_and_channel_check) for dma_periph_and_channel_check
    gd32f10x_dma.o(i.dma_transfer_direction_config) refers to gd32f10x_dma.o(i.dma_periph_and_channel_check) for dma_periph_and_channel_check
    gd32f10x_dma.o(i.dma_transfer_number_config) refers to gd32f10x_dma.o(i.dma_periph_and_channel_check) for dma_periph_and_channel_check
    gd32f10x_dma.o(i.dma_transfer_number_get) refers to gd32f10x_dma.o(i.dma_periph_and_channel_check) for dma_periph_and_channel_check
    gd32f10x_fmc.o(i.fmc_bank0_erase) refers to gd32f10x_fmc.o(i.fmc_bank0_ready_wait) for fmc_bank0_ready_wait
    gd32f10x_fmc.o(i.fmc_bank0_ready_wait) refers to gd32f10x_fmc.o(i.fmc_bank0_state_get) for fmc_bank0_state_get
    gd32f10x_fmc.o(i.fmc_bank1_erase) refers to gd32f10x_fmc.o(i.fmc_bank1_ready_wait) for fmc_bank1_ready_wait
    gd32f10x_fmc.o(i.fmc_bank1_ready_wait) refers to gd32f10x_fmc.o(i.fmc_bank1_state_get) for fmc_bank1_state_get
    gd32f10x_fmc.o(i.fmc_halfword_program) refers to gd32f10x_fmc.o(i.fmc_bank0_ready_wait) for fmc_bank0_ready_wait
    gd32f10x_fmc.o(i.fmc_halfword_program) refers to gd32f10x_fmc.o(i.fmc_bank1_ready_wait) for fmc_bank1_ready_wait
    gd32f10x_fmc.o(i.fmc_mass_erase) refers to gd32f10x_fmc.o(i.fmc_bank0_ready_wait) for fmc_bank0_ready_wait
    gd32f10x_fmc.o(i.fmc_mass_erase) refers to gd32f10x_fmc.o(i.fmc_bank1_ready_wait) for fmc_bank1_ready_wait
    gd32f10x_fmc.o(i.fmc_page_erase) refers to gd32f10x_fmc.o(i.fmc_bank0_ready_wait) for fmc_bank0_ready_wait
    gd32f10x_fmc.o(i.fmc_page_erase) refers to gd32f10x_fmc.o(i.fmc_bank1_ready_wait) for fmc_bank1_ready_wait
    gd32f10x_fmc.o(i.fmc_word_program) refers to gd32f10x_fmc.o(i.fmc_bank0_ready_wait) for fmc_bank0_ready_wait
    gd32f10x_fmc.o(i.fmc_word_program) refers to gd32f10x_fmc.o(i.fmc_bank1_ready_wait) for fmc_bank1_ready_wait
    gd32f10x_fmc.o(i.ob_data_program) refers to gd32f10x_fmc.o(i.fmc_bank0_ready_wait) for fmc_bank0_ready_wait
    gd32f10x_fmc.o(i.ob_erase) refers to gd32f10x_fmc.o(i.fmc_bank0_ready_wait) for fmc_bank0_ready_wait
    gd32f10x_fmc.o(i.ob_erase) refers to gd32f10x_fmc.o(i.ob_spc_get) for ob_spc_get
    gd32f10x_fmc.o(i.ob_security_protection_config) refers to gd32f10x_fmc.o(i.fmc_bank0_ready_wait) for fmc_bank0_ready_wait
    gd32f10x_fmc.o(i.ob_user_write) refers to gd32f10x_fmc.o(i.fmc_bank0_ready_wait) for fmc_bank0_ready_wait
    gd32f10x_fmc.o(i.ob_write_protection_enable) refers to gd32f10x_fmc.o(i.fmc_bank0_ready_wait) for fmc_bank0_ready_wait
    gd32f10x_gpio.o(i.gpio_afio_deinit) refers to gd32f10x_rcu.o(i.rcu_periph_reset_enable) for rcu_periph_reset_enable
    gd32f10x_gpio.o(i.gpio_afio_deinit) refers to gd32f10x_rcu.o(i.rcu_periph_reset_disable) for rcu_periph_reset_disable
    gd32f10x_gpio.o(i.gpio_deinit) refers to gd32f10x_rcu.o(i.rcu_periph_reset_enable) for rcu_periph_reset_enable
    gd32f10x_gpio.o(i.gpio_deinit) refers to gd32f10x_rcu.o(i.rcu_periph_reset_disable) for rcu_periph_reset_disable
    gd32f10x_i2c.o(i.i2c_clock_config) refers to gd32f10x_rcu.o(i.rcu_clock_freq_get) for rcu_clock_freq_get
    gd32f10x_i2c.o(i.i2c_deinit) refers to gd32f10x_rcu.o(i.rcu_periph_reset_enable) for rcu_periph_reset_enable
    gd32f10x_i2c.o(i.i2c_deinit) refers to gd32f10x_rcu.o(i.rcu_periph_reset_disable) for rcu_periph_reset_disable
    gd32f10x_misc.o(i.nvic_irq_enable) refers to gd32f10x_misc.o(i.nvic_priority_group_set) for nvic_priority_group_set
    gd32f10x_pmu.o(i.pmu_deinit) refers to gd32f10x_rcu.o(i.rcu_periph_reset_enable) for rcu_periph_reset_enable
    gd32f10x_pmu.o(i.pmu_deinit) refers to gd32f10x_rcu.o(i.rcu_periph_reset_disable) for rcu_periph_reset_disable
    gd32f10x_pmu.o(i.pmu_to_deepsleepmode) refers to gd32f10x_pmu.o(.bss) for reg_snap
    gd32f10x_rcu.o(i.rcu_deinit) refers to gd32f10x_rcu.o(i.rcu_osci_stab_wait) for rcu_osci_stab_wait
    gd32f10x_rcu.o(i.rcu_osci_stab_wait) refers to gd32f10x_rcu.o(i.rcu_flag_get) for rcu_flag_get
    gd32f10x_rtc.o(i.rtc_alarm_config) refers to gd32f10x_rtc.o(i.rtc_configuration_mode_enter) for rtc_configuration_mode_enter
    gd32f10x_rtc.o(i.rtc_alarm_config) refers to gd32f10x_rtc.o(i.rtc_configuration_mode_exit) for rtc_configuration_mode_exit
    gd32f10x_rtc.o(i.rtc_counter_set) refers to gd32f10x_rtc.o(i.rtc_configuration_mode_enter) for rtc_configuration_mode_enter
    gd32f10x_rtc.o(i.rtc_counter_set) refers to gd32f10x_rtc.o(i.rtc_configuration_mode_exit) for rtc_configuration_mode_exit
    gd32f10x_rtc.o(i.rtc_prescaler_set) refers to gd32f10x_rtc.o(i.rtc_configuration_mode_enter) for rtc_configuration_mode_enter
    gd32f10x_rtc.o(i.rtc_prescaler_set) refers to gd32f10x_rtc.o(i.rtc_configuration_mode_exit) for rtc_configuration_mode_exit
    gd32f10x_spi.o(i.i2s_psc_config) refers to gd32f10x_rcu.o(i.rcu_clock_freq_get) for rcu_clock_freq_get
    gd32f10x_spi.o(i.spi_i2s_deinit) refers to gd32f10x_rcu.o(i.rcu_periph_reset_enable) for rcu_periph_reset_enable
    gd32f10x_spi.o(i.spi_i2s_deinit) refers to gd32f10x_rcu.o(i.rcu_periph_reset_disable) for rcu_periph_reset_disable
    gd32f10x_timer.o(i.timer_deinit) refers to gd32f10x_rcu.o(i.rcu_periph_reset_enable) for rcu_periph_reset_enable
    gd32f10x_timer.o(i.timer_deinit) refers to gd32f10x_rcu.o(i.rcu_periph_reset_disable) for rcu_periph_reset_disable
    gd32f10x_timer.o(i.timer_external_clock_mode0_config) refers to gd32f10x_timer.o(i.timer_external_trigger_config) for timer_external_trigger_config
    gd32f10x_timer.o(i.timer_external_clock_mode1_config) refers to gd32f10x_timer.o(i.timer_external_trigger_config) for timer_external_trigger_config
    gd32f10x_timer.o(i.timer_external_trigger_as_external_clock_config) refers to gd32f10x_timer.o(i.timer_input_trigger_source_select) for timer_input_trigger_source_select
    gd32f10x_timer.o(i.timer_input_capture_config) refers to gd32f10x_timer.o(i.timer_channel_input_capture_prescaler_config) for timer_channel_input_capture_prescaler_config
    gd32f10x_timer.o(i.timer_input_pwm_capture_config) refers to gd32f10x_timer.o(i.timer_channel_input_capture_prescaler_config) for timer_channel_input_capture_prescaler_config
    gd32f10x_timer.o(i.timer_internal_trigger_as_external_clock_config) refers to gd32f10x_timer.o(i.timer_input_trigger_source_select) for timer_input_trigger_source_select
    gd32f10x_usart.o(i.usart_baudrate_set) refers to gd32f10x_rcu.o(i.rcu_clock_freq_get) for rcu_clock_freq_get
    gd32f10x_usart.o(i.usart_deinit) refers to gd32f10x_rcu.o(i.rcu_periph_reset_enable) for rcu_periph_reset_enable
    gd32f10x_usart.o(i.usart_deinit) refers to gd32f10x_rcu.o(i.rcu_periph_reset_disable) for rcu_periph_reset_disable
    gd32f10x_wwdgt.o(i.wwdgt_deinit) refers to gd32f10x_rcu.o(i.rcu_periph_reset_enable) for rcu_periph_reset_enable
    gd32f10x_wwdgt.o(i.wwdgt_deinit) refers to gd32f10x_rcu.o(i.rcu_periph_reset_disable) for rcu_periph_reset_disable
    bsp_eeprom.o(i.BSP_EEPROM_Init) refers to gd32f10x_rcu.o(i.rcu_periph_clock_enable) for rcu_periph_clock_enable
    bsp_eeprom.o(i.BSP_EEPROM_Init) refers to gd32f10x_gpio.o(i.gpio_init) for gpio_init
    bsp_eeprom.o(i.BSP_EEPROM_Init) refers to bsp_eeprom.o(i.EE_Stop) for EE_Stop
    bsp_eeprom.o(i.EE_Ack) refers to bsp_eeprom.o(i.EE_Delay) for EE_Delay
    bsp_eeprom.o(i.EE_Delay) refers to sys.o(i.delay_us) for delay_us
    bsp_eeprom.o(i.EE_NAck) refers to bsp_eeprom.o(i.EE_Delay) for EE_Delay
    bsp_eeprom.o(i.EE_ReadByte) refers to bsp_eeprom.o(i.EE_Delay) for EE_Delay
    bsp_eeprom.o(i.EE_SendByte) refers to bsp_eeprom.o(i.EE_Delay) for EE_Delay
    bsp_eeprom.o(i.EE_Start) refers to bsp_eeprom.o(i.EE_Delay) for EE_Delay
    bsp_eeprom.o(i.EE_Stop) refers to bsp_eeprom.o(i.EE_Delay) for EE_Delay
    bsp_eeprom.o(i.EE_WaitAck) refers to bsp_eeprom.o(i.EE_Delay) for EE_Delay
    bsp_eeprom.o(i.read_eeprom) refers to bsp_eeprom.o(i.EE_Start) for EE_Start
    bsp_eeprom.o(i.read_eeprom) refers to bsp_eeprom.o(i.EE_SendByte) for EE_SendByte
    bsp_eeprom.o(i.read_eeprom) refers to bsp_eeprom.o(i.EE_WaitAck) for EE_WaitAck
    bsp_eeprom.o(i.read_eeprom) refers to bsp_eeprom.o(i.EE_ReadByte) for EE_ReadByte
    bsp_eeprom.o(i.read_eeprom) refers to bsp_eeprom.o(i.EE_Ack) for EE_Ack
    bsp_eeprom.o(i.read_eeprom) refers to bsp_eeprom.o(i.EE_NAck) for EE_NAck
    bsp_eeprom.o(i.read_eeprom) refers to bsp_eeprom.o(i.EE_Stop) for EE_Stop
    bsp_eeprom.o(i.set_eeprom) refers to bsp_eeprom.o(i.EE_Stop) for EE_Stop
    bsp_eeprom.o(i.set_eeprom) refers to bsp_eeprom.o(i.EE_Start) for EE_Start
    bsp_eeprom.o(i.set_eeprom) refers to bsp_eeprom.o(i.EE_SendByte) for EE_SendByte
    bsp_eeprom.o(i.set_eeprom) refers to bsp_eeprom.o(i.EE_WaitAck) for EE_WaitAck
    bsp_eeprom.o(i.write_eeprom) refers to bsp_eeprom.o(i.EE_Stop) for EE_Stop
    bsp_eeprom.o(i.write_eeprom) refers to bsp_eeprom.o(i.EE_Start) for EE_Start
    bsp_eeprom.o(i.write_eeprom) refers to bsp_eeprom.o(i.EE_SendByte) for EE_SendByte
    bsp_eeprom.o(i.write_eeprom) refers to bsp_eeprom.o(i.EE_WaitAck) for EE_WaitAck
    bsp_gpio.o(i.BSP_GPIO_Init) refers to gd32f10x_rcu.o(i.rcu_periph_clock_enable) for rcu_periph_clock_enable
    bsp_gpio.o(i.BSP_GPIO_Init) refers to gd32f10x_gpio.o(i.gpio_init) for gpio_init
    bsp_gpio.o(i.BSP_GPIO_Init) refers to sys.o(i.delay_ms) for delay_ms
    bsp_uart.o(i.BSP_Uart_Init) refers to gd32f10x_rcu.o(i.rcu_periph_clock_enable) for rcu_periph_clock_enable
    bsp_uart.o(i.BSP_Uart_Init) refers to bsp_uart.o(i.uart_var_init) for uart_var_init
    bsp_uart.o(i.BSP_Uart_Init) refers to gd32f10x_gpio.o(i.gpio_init) for gpio_init
    bsp_uart.o(i.BSP_Uart_Init) refers to gd32f10x_usart.o(i.usart_deinit) for usart_deinit
    bsp_uart.o(i.BSP_Uart_Init) refers to gd32f10x_usart.o(i.usart_baudrate_set) for usart_baudrate_set
    bsp_uart.o(i.BSP_Uart_Init) refers to gd32f10x_usart.o(i.usart_parity_config) for usart_parity_config
    bsp_uart.o(i.BSP_Uart_Init) refers to gd32f10x_usart.o(i.usart_word_length_set) for usart_word_length_set
    bsp_uart.o(i.BSP_Uart_Init) refers to gd32f10x_usart.o(i.usart_stop_bit_set) for usart_stop_bit_set
    bsp_uart.o(i.BSP_Uart_Init) refers to gd32f10x_usart.o(i.usart_hardware_flow_rts_config) for usart_hardware_flow_rts_config
    bsp_uart.o(i.BSP_Uart_Init) refers to gd32f10x_usart.o(i.usart_hardware_flow_cts_config) for usart_hardware_flow_cts_config
    bsp_uart.o(i.BSP_Uart_Init) refers to gd32f10x_usart.o(i.usart_transmit_config) for usart_transmit_config
    bsp_uart.o(i.BSP_Uart_Init) refers to gd32f10x_usart.o(i.usart_receive_config) for usart_receive_config
    bsp_uart.o(i.BSP_Uart_Init) refers to gd32f10x_usart.o(i.usart_enable) for usart_enable
    bsp_uart.o(i.BSP_Uart_Init) refers to gd32f10x_usart.o(i.usart_interrupt_enable) for usart_interrupt_enable
    bsp_uart.o(i.BSP_Uart_Init) refers to gd32f10x_misc.o(i.nvic_irq_enable) for nvic_irq_enable
    bsp_uart.o(i.BSP_Uart_Init) refers to gd32f10x_gpio.o(i.gpio_pin_remap_config) for gpio_pin_remap_config
    bsp_uart.o(i.UART_IRQn) refers to gd32f10x_usart.o(i.usart_interrupt_flag_get) for usart_interrupt_flag_get
    bsp_uart.o(i.UART_IRQn) refers to gd32f10x_usart.o(i.usart_data_receive) for usart_data_receive
    bsp_uart.o(i.UART_IRQn) refers to gd32f10x_usart.o(i.usart_interrupt_flag_clear) for usart_interrupt_flag_clear
    bsp_uart.o(i.UART_IRQn) refers to gd32f10x_usart.o(i.usart_interrupt_enable) for usart_interrupt_enable
    bsp_uart.o(i.UART_IRQn) refers to gd32f10x_usart.o(i.usart_interrupt_disable) for usart_interrupt_disable
    bsp_uart.o(i.UART_IRQn) refers to gd32f10x_usart.o(i.usart_data_transmit) for usart_data_transmit
    bsp_uart.o(i.Uart3SetBaud) refers to gd32f10x_usart.o(i.usart_deinit) for usart_deinit
    bsp_uart.o(i.Uart3SetBaud) refers to gd32f10x_usart.o(i.usart_baudrate_set) for usart_baudrate_set
    bsp_uart.o(i.Uart3SetBaud) refers to gd32f10x_usart.o(i.usart_parity_config) for usart_parity_config
    bsp_uart.o(i.Uart3SetBaud) refers to gd32f10x_usart.o(i.usart_word_length_set) for usart_word_length_set
    bsp_uart.o(i.Uart3SetBaud) refers to gd32f10x_usart.o(i.usart_stop_bit_set) for usart_stop_bit_set
    bsp_uart.o(i.Uart3SetBaud) refers to gd32f10x_usart.o(i.usart_hardware_flow_rts_config) for usart_hardware_flow_rts_config
    bsp_uart.o(i.Uart3SetBaud) refers to gd32f10x_usart.o(i.usart_hardware_flow_cts_config) for usart_hardware_flow_cts_config
    bsp_uart.o(i.Uart3SetBaud) refers to gd32f10x_usart.o(i.usart_transmit_config) for usart_transmit_config
    bsp_uart.o(i.Uart3SetBaud) refers to gd32f10x_usart.o(i.usart_receive_config) for usart_receive_config
    bsp_uart.o(i.Uart3SetBaud) refers to gd32f10x_usart.o(i.usart_enable) for usart_enable
    bsp_uart.o(i.UartSend) refers to gd32f10x_usart.o(i.usart_interrupt_disable) for usart_interrupt_disable
    bsp_uart.o(i.UartSend) refers to gd32f10x_usart.o(i.usart_interrupt_enable) for usart_interrupt_enable
    bsp_uart.o(i.uart_send_buf) refers to bsp_uart.o(i.add_parity_bit) for add_parity_bit
    bsp_uart.o(i.uart_send_buf) refers to gd32f10x_usart.o(i.usart_data_transmit) for usart_data_transmit
    bsp_uart.o(i.uart_send_buf) refers to gd32f10x_usart.o(i.usart_flag_get) for usart_flag_get
    bsp_uart.o(i.uart_send_buf) refers to sys.o(i.delay_ms) for delay_ms
    bsp_uart.o(i.uart_var_init) refers to bsp_uart.o(.bss) for g_tUart0
    bsp_timer.o(i.BSP_TIM_Init) refers to bsp_timer.o(i.TIM0_Init) for TIM0_Init
    bsp_timer.o(i.BSP_TIM_Init) refers to bsp_timer.o(i.TIM1_Init) for TIM1_Init
    bsp_timer.o(i.BSP_TIM_Init) refers to bsp_timer.o(i.TIM5_Init) for TIM5_Init
    bsp_timer.o(i.PulseCntGet) refers to bsp_timer.o(.data) for timer0OverflowCnt
    bsp_timer.o(i.PulseCntGet) refers to main.o(.data) for pulseCntInt
    bsp_timer.o(i.TIM0_Init) refers to gd32f10x_rcu.o(i.rcu_periph_clock_enable) for rcu_periph_clock_enable
    bsp_timer.o(i.TIM0_Init) refers to gd32f10x_gpio.o(i.gpio_init) for gpio_init
    bsp_timer.o(i.TIM0_Init) refers to gd32f10x_timer.o(i.timer_deinit) for timer_deinit
    bsp_timer.o(i.TIM0_Init) refers to gd32f10x_timer.o(i.timer_init) for timer_init
    bsp_timer.o(i.TIM0_Init) refers to gd32f10x_timer.o(i.timer_input_trigger_source_select) for timer_input_trigger_source_select
    bsp_timer.o(i.TIM0_Init) refers to gd32f10x_timer.o(i.timer_slave_mode_select) for timer_slave_mode_select
    bsp_timer.o(i.TIM0_Init) refers to gd32f10x_timer.o(i.timer_external_clock_mode1_config) for timer_external_clock_mode1_config
    bsp_timer.o(i.TIM0_Init) refers to gd32f10x_timer.o(i.timer_master_slave_mode_config) for timer_master_slave_mode_config
    bsp_timer.o(i.TIM0_Init) refers to gd32f10x_timer.o(i.timer_counter_value_config) for timer_counter_value_config
    bsp_timer.o(i.TIM0_Init) refers to gd32f10x_timer.o(i.timer_interrupt_flag_clear) for timer_interrupt_flag_clear
    bsp_timer.o(i.TIM0_Init) refers to gd32f10x_misc.o(i.nvic_irq_enable) for nvic_irq_enable
    bsp_timer.o(i.TIM0_Init) refers to gd32f10x_timer.o(i.timer_interrupt_enable) for timer_interrupt_enable
    bsp_timer.o(i.TIM0_Init) refers to gd32f10x_timer.o(i.timer_enable) for timer_enable
    bsp_timer.o(i.TIM1_Init) refers to gd32f10x_rcu.o(i.rcu_periph_clock_enable) for rcu_periph_clock_enable
    bsp_timer.o(i.TIM1_Init) refers to gd32f10x_gpio.o(i.gpio_init) for gpio_init
    bsp_timer.o(i.TIM1_Init) refers to gd32f10x_timer.o(i.timer_deinit) for timer_deinit
    bsp_timer.o(i.TIM1_Init) refers to gd32f10x_timer.o(i.timer_struct_para_init) for timer_struct_para_init
    bsp_timer.o(i.TIM1_Init) refers to gd32f10x_timer.o(i.timer_init) for timer_init
    bsp_timer.o(i.TIM1_Init) refers to gd32f10x_timer.o(i.timer_slave_mode_select) for timer_slave_mode_select
    bsp_timer.o(i.TIM1_Init) refers to gd32f10x_timer.o(i.timer_input_trigger_source_select) for timer_input_trigger_source_select
    bsp_timer.o(i.TIM1_Init) refers to gd32f10x_timer.o(i.timer_external_clock_mode1_config) for timer_external_clock_mode1_config
    bsp_timer.o(i.TIM1_Init) refers to gd32f10x_timer.o(i.timer_master_slave_mode_config) for timer_master_slave_mode_config
    bsp_timer.o(i.TIM1_Init) refers to gd32f10x_timer.o(i.timer_counter_value_config) for timer_counter_value_config
    bsp_timer.o(i.TIM1_Init) refers to gd32f10x_timer.o(i.timer_interrupt_flag_clear) for timer_interrupt_flag_clear
    bsp_timer.o(i.TIM1_Init) refers to gd32f10x_timer.o(i.timer_interrupt_enable) for timer_interrupt_enable
    bsp_timer.o(i.TIM1_Init) refers to gd32f10x_timer.o(i.timer_enable) for timer_enable
    bsp_timer.o(i.TIM1_Init) refers to gd32f10x_misc.o(i.nvic_priority_group_set) for nvic_priority_group_set
    bsp_timer.o(i.TIM1_Init) refers to gd32f10x_misc.o(i.nvic_irq_enable) for nvic_irq_enable
    bsp_timer.o(i.TIM5_Init) refers to gd32f10x_rcu.o(i.rcu_periph_clock_enable) for rcu_periph_clock_enable
    bsp_timer.o(i.TIM5_Init) refers to gd32f10x_timer.o(i.timer_deinit) for timer_deinit
    bsp_timer.o(i.TIM5_Init) refers to gd32f10x_timer.o(i.timer_init) for timer_init
    bsp_timer.o(i.TIM5_Init) refers to gd32f10x_timer.o(i.timer_auto_reload_shadow_enable) for timer_auto_reload_shadow_enable
    bsp_timer.o(i.TIM5_Init) refers to gd32f10x_timer.o(i.timer_flag_clear) for timer_flag_clear
    bsp_timer.o(i.TIM5_Init) refers to gd32f10x_timer.o(i.timer_interrupt_enable) for timer_interrupt_enable
    bsp_timer.o(i.TIM5_Init) refers to gd32f10x_timer.o(i.timer_enable) for timer_enable
    bsp_timer.o(i.TIM5_Init) refers to gd32f10x_misc.o(i.nvic_irq_enable) for nvic_irq_enable
    bsp_timer.o(i.TIMER0_UP_IRQHandler) refers to gd32f10x_timer.o(i.timer_interrupt_flag_get) for timer_interrupt_flag_get
    bsp_timer.o(i.TIMER0_UP_IRQHandler) refers to gd32f10x_timer.o(i.timer_interrupt_flag_clear) for timer_interrupt_flag_clear
    bsp_timer.o(i.TIMER0_UP_IRQHandler) refers to bsp_timer.o(.data) for timer0OverflowCnt
    bsp_timer.o(i.TIMER1_IRQHandler) refers to gd32f10x_timer.o(i.timer_interrupt_flag_get) for timer_interrupt_flag_get
    bsp_timer.o(i.TIMER1_IRQHandler) refers to gd32f10x_timer.o(i.timer_interrupt_flag_clear) for timer_interrupt_flag_clear
    bsp_timer.o(i.TIMER1_IRQHandler) refers to bsp_timer.o(.data) for timer1OverflowCnt
    bsp_timer.o(i.TIMER5_IRQHandler) refers to gd32f10x_timer.o(i.timer_interrupt_flag_get) for timer_interrupt_flag_get
    bsp_timer.o(i.TIMER5_IRQHandler) refers to gd32f10x_timer.o(i.timer_interrupt_flag_clear) for timer_interrupt_flag_clear
    bsp_timer.o(i.TIMER5_IRQHandler) refers to bsp_timer.o(.data) for timerCnt
    bsp_timer.o(i.TimerGetCnt) refers to bsp_timer.o(.data) for timerCnt
    bsp_adc.o(i.ADC_GetVolPer) refers to bsp_adc.o(i.GetAdcVal) for GetAdcVal
    bsp_adc.o(i.ADC_GetVolPer) refers to fflt_clz.o(x$fpl$ffltu) for __aeabi_ui2f
    bsp_adc.o(i.ADC_GetVolPer) refers to fdiv.o(x$fpl$fdiv) for __aeabi_fdiv
    bsp_adc.o(i.ADC_GetVolPer) refers to fmul.o(x$fpl$fmul) for __aeabi_fmul
    bsp_adc.o(i.ADC_GetVolPer) refers to bsp_adc.o(i.Get_BatValueSOC) for Get_BatValueSOC
    bsp_adc.o(i.Adc_Init) refers to gd32f10x_rcu.o(i.rcu_periph_clock_enable) for rcu_periph_clock_enable
    bsp_adc.o(i.Adc_Init) refers to gd32f10x_rcu.o(i.rcu_adc_clock_config) for rcu_adc_clock_config
    bsp_adc.o(i.Adc_Init) refers to gd32f10x_adc.o(i.adc_deinit) for adc_deinit
    bsp_adc.o(i.Adc_Init) refers to gd32f10x_adc.o(i.adc_mode_config) for adc_mode_config
    bsp_adc.o(i.Adc_Init) refers to gd32f10x_adc.o(i.adc_special_function_config) for adc_special_function_config
    bsp_adc.o(i.Adc_Init) refers to gd32f10x_adc.o(i.adc_data_alignment_config) for adc_data_alignment_config
    bsp_adc.o(i.Adc_Init) refers to gd32f10x_adc.o(i.adc_channel_length_config) for adc_channel_length_config
    bsp_adc.o(i.Adc_Init) refers to gd32f10x_adc.o(i.adc_regular_channel_config) for adc_regular_channel_config
    bsp_adc.o(i.Adc_Init) refers to gd32f10x_adc.o(i.adc_external_trigger_source_config) for adc_external_trigger_source_config
    bsp_adc.o(i.Adc_Init) refers to gd32f10x_adc.o(i.adc_external_trigger_config) for adc_external_trigger_config
    bsp_adc.o(i.Adc_Init) refers to gd32f10x_adc.o(i.adc_enable) for adc_enable
    bsp_adc.o(i.Adc_Init) refers to sys.o(i.delay_ms) for delay_ms
    bsp_adc.o(i.Adc_Init) refers to gd32f10x_adc.o(i.adc_calibration_enable) for adc_calibration_enable
    bsp_adc.o(i.BSP_ADC_Init) refers to bsp_adc.o(i.Gpio_Init) for Gpio_Init
    bsp_adc.o(i.BSP_ADC_Init) refers to bsp_adc.o(i.Adc_Init) for Adc_Init
    bsp_adc.o(i.GetAdcVal) refers to gd32f10x_adc.o(i.adc_software_trigger_enable) for adc_software_trigger_enable
    bsp_adc.o(i.GetAdcVal) refers to gd32f10x_adc.o(i.adc_flag_get) for adc_flag_get
    bsp_adc.o(i.GetAdcVal) refers to gd32f10x_adc.o(i.adc_regular_data_read) for adc_regular_data_read
    bsp_adc.o(i.Get_BatValueSOC) refers to rt_memcpy_w.o(.text) for __aeabi_memcpy4
    bsp_adc.o(i.Get_BatValueSOC) refers to fmul.o(x$fpl$fmul) for __aeabi_fmul
    bsp_adc.o(i.Get_BatValueSOC) refers to ffixu.o(x$fpl$ffixu) for __aeabi_f2uiz
    bsp_adc.o(i.Get_BatValueSOC) refers to fflt_clz.o(x$fpl$ffltu) for __aeabi_ui2f
    bsp_adc.o(i.Get_BatValueSOC) refers to fdiv.o(x$fpl$fdiv) for __aeabi_fdiv
    bsp_adc.o(i.Get_BatValueSOC) refers to frleqf.o(x$fpl$frleqf) for __aeabi_cfrcmple
    bsp_adc.o(i.Get_BatValueSOC) refers to fleqf.o(x$fpl$fleqf) for __aeabi_cfcmple
    bsp_adc.o(i.Get_BatValueSOC) refers to bsp_adc.o(.constdata) for .constdata
    bsp_adc.o(i.Get_voltage) refers to bsp_adc.o(i.GetAdcVal) for GetAdcVal
    bsp_adc.o(i.Get_voltage) refers to fflt_clz.o(x$fpl$ffltu) for __aeabi_ui2f
    bsp_adc.o(i.Get_voltage) refers to fdiv.o(x$fpl$fdiv) for __aeabi_fdiv
    bsp_adc.o(i.Get_voltage) refers to fmul.o(x$fpl$fmul) for __aeabi_fmul
    bsp_adc.o(i.Get_voltage) refers to faddsub_clz.o(x$fpl$fsub) for __aeabi_fsub
    bsp_adc.o(i.Get_voltage) refers to fleqf.o(x$fpl$fleqf) for __aeabi_cfcmple
    bsp_adc.o(i.Get_voltage) refers to f2d.o(x$fpl$f2d) for __aeabi_f2d
    bsp_adc.o(i.Get_voltage) refers to drleqf.o(x$fpl$drleqf) for __aeabi_cdrcmple
    bsp_adc.o(i.Get_voltage) refers to ddiv.o(x$fpl$ddiv) for __aeabi_ddiv
    bsp_adc.o(i.Get_voltage) refers to dfixu.o(x$fpl$dfixu) for __aeabi_d2uiz
    bsp_adc.o(i.Get_voltage) refers to faddsub_clz.o(x$fpl$fadd) for __aeabi_fadd
    bsp_adc.o(i.Get_voltage) refers to fflt_clz.o(x$fpl$fflt) for __aeabi_i2f
    bsp_adc.o(i.Get_voltage) refers to ffixu.o(x$fpl$ffixu) for __aeabi_f2uiz
    bsp_adc.o(i.Get_voltage) refers to bsp_adc.o(.data) for Voltage_buff_count
    bsp_adc.o(i.Get_voltage) refers to bsp_adc.o(.bss) for Voltage_buff
    bsp_adc.o(i.Get_voltage) refers to main.o(.data) for Voltage
    bsp_adc.o(i.Gpio_Init) refers to gd32f10x_rcu.o(i.rcu_periph_clock_enable) for rcu_periph_clock_enable
    bsp_adc.o(i.Gpio_Init) refers to gd32f10x_gpio.o(i.gpio_init) for gpio_init
    bsp_rtc.o(i.BSP_RTC_Init) refers to gd32f10x_rcu.o(i.rcu_periph_clock_enable) for rcu_periph_clock_enable
    bsp_rtc.o(i.BSP_RTC_Init) refers to gd32f10x_gpio.o(i.gpio_init) for gpio_init
    bsp_rtc.o(i.BSP_RTC_Init) refers to bsp_rtc.o(i.RTC_Stop) for RTC_Stop
    bsp_rtc.o(i.BSP_RTC_Init) refers to bsp_rtc.o(i.RTC_Write) for RTC_Write
    bsp_rtc.o(i.Get_RTC_Time) refers to bsp_rtc.o(i.RTC_Read) for RTC_Read
    bsp_rtc.o(i.Get_RTC_Time) refers to sys.o(i.Byte_BCDToBin) for Byte_BCDToBin
    bsp_rtc.o(i.RTC_Ack) refers to bsp_rtc.o(i.RTC_Delay) for RTC_Delay
    bsp_rtc.o(i.RTC_Delay) refers to sys.o(i.delay_us) for delay_us
    bsp_rtc.o(i.RTC_NAck) refers to bsp_rtc.o(i.RTC_Delay) for RTC_Delay
    bsp_rtc.o(i.RTC_Read) refers to bsp_rtc.o(i.RTC_Start) for RTC_Start
    bsp_rtc.o(i.RTC_Read) refers to bsp_rtc.o(i.RTC_SendByte) for RTC_SendByte
    bsp_rtc.o(i.RTC_Read) refers to bsp_rtc.o(i.RTC_WaitAck) for RTC_WaitAck
    bsp_rtc.o(i.RTC_Read) refers to bsp_rtc.o(i.RTC_ReadByte) for RTC_ReadByte
    bsp_rtc.o(i.RTC_Read) refers to bsp_rtc.o(i.RTC_Ack) for RTC_Ack
    bsp_rtc.o(i.RTC_Read) refers to bsp_rtc.o(i.RTC_NAck) for RTC_NAck
    bsp_rtc.o(i.RTC_Read) refers to bsp_rtc.o(i.RTC_Stop) for RTC_Stop
    bsp_rtc.o(i.RTC_ReadByte) refers to bsp_rtc.o(i.RTC_Delay) for RTC_Delay
    bsp_rtc.o(i.RTC_SendByte) refers to bsp_rtc.o(i.RTC_Delay) for RTC_Delay
    bsp_rtc.o(i.RTC_Start) refers to bsp_rtc.o(i.RTC_Delay) for RTC_Delay
    bsp_rtc.o(i.RTC_Stop) refers to bsp_rtc.o(i.RTC_Delay) for RTC_Delay
    bsp_rtc.o(i.RTC_WaitAck) refers to bsp_rtc.o(i.RTC_Delay) for RTC_Delay
    bsp_rtc.o(i.RTC_Write) refers to bsp_rtc.o(i.RTC_Start) for RTC_Start
    bsp_rtc.o(i.RTC_Write) refers to bsp_rtc.o(i.RTC_SendByte) for RTC_SendByte
    bsp_rtc.o(i.RTC_Write) refers to bsp_rtc.o(i.RTC_WaitAck) for RTC_WaitAck
    bsp_rtc.o(i.RTC_Write) refers to bsp_rtc.o(i.RTC_Stop) for RTC_Stop
    bsp_rtc.o(i.Set_RTC_Time) refers to sys.o(i.Byte_BinToBCD) for Byte_BinToBCD
    bsp_rtc.o(i.Set_RTC_Time) refers to bsp_rtc.o(i.RTC_Write) for RTC_Write
    bsp_rtc.o(i.Set_RTC_Time) refers to sys.o(i.delay_ms) for delay_ms
    bsp_pwm.o(i.BSP_PWM_Init) refers to gd32f10x_rcu.o(i.rcu_periph_clock_enable) for rcu_periph_clock_enable
    bsp_pwm.o(i.BSP_PWM_Init) refers to gd32f10x_gpio.o(i.gpio_init) for gpio_init
    bsp_pwm.o(i.BSP_PWM_Init) refers to gd32f10x_timer.o(i.timer_deinit) for timer_deinit
    bsp_pwm.o(i.BSP_PWM_Init) refers to gd32f10x_timer.o(i.timer_init) for timer_init
    bsp_pwm.o(i.BSP_PWM_Init) refers to gd32f10x_timer.o(i.timer_channel_output_config) for timer_channel_output_config
    bsp_pwm.o(i.BSP_PWM_Init) refers to gd32f10x_timer.o(i.timer_channel_output_pulse_value_config) for timer_channel_output_pulse_value_config
    bsp_pwm.o(i.BSP_PWM_Init) refers to gd32f10x_timer.o(i.timer_channel_output_mode_config) for timer_channel_output_mode_config
    bsp_pwm.o(i.BSP_PWM_Init) refers to gd32f10x_timer.o(i.timer_channel_output_shadow_config) for timer_channel_output_shadow_config
    bsp_pwm.o(i.BSP_PWM_Init) refers to gd32f10x_timer.o(i.timer_auto_reload_shadow_enable) for timer_auto_reload_shadow_enable
    bsp_pwm.o(i.BSP_PWM_Init) refers to gd32f10x_timer.o(i.timer_enable) for timer_enable
    bsp_key.o(i.BSP_Key_Init) refers to gd32f10x_rcu.o(i.rcu_periph_clock_enable) for rcu_periph_clock_enable
    bsp_key.o(i.BSP_Key_Init) refers to gd32f10x_gpio.o(i.gpio_init) for gpio_init
    bsp_key.o(i.BSP_Key_Init) refers to bsp_key.o(.data) for keyList
    bsp_key.o(i.KeyGetState) refers to bsp_key.o(.data) for keyState
    bsp_key.o(i.bsp_ClearKey) refers to bsp_key.o(.bss) for keyValList
    bsp_key.o(i.bsp_GetKey) refers to bsp_key.o(.bss) for keyValList
    bsp_key.o(i.bsp_KeyScan) refers to gd32f10x_gpio.o(i.gpio_input_bit_get) for gpio_input_bit_get
    bsp_key.o(i.bsp_KeyScan) refers to bsp_key.o(i.bsp_PutKey) for bsp_PutKey
    bsp_key.o(i.bsp_KeyScan) refers to bsp_key.o(.data) for keyList
    bsp_key.o(i.bsp_PutKey) refers to bsp_key.o(.bss) for keyValList
    bsp_lcd.o(i.LCD_Fill) refers to bsp_lcd.o(i.LCD_set_window) for LCD_set_window
    bsp_lcd.o(i.LCD_Fill) refers to bsp_lcd.o(i.LCD_write) for LCD_write
    bsp_lcd.o(i.LCD_FillData) refers to bsp_lcd.o(i.LCD_set_window) for LCD_set_window
    bsp_lcd.o(i.LCD_FillData) refers to bsp_lcd.o(i.LCD_write) for LCD_write
    bsp_lcd.o(i.LCD_Init) refers to bsp_lcd.o(i.lcd_gpio_init) for lcd_gpio_init
    bsp_lcd.o(i.LCD_Init) refers to bsp_lcd.o(i.lcd_spi_init) for lcd_spi_init
    bsp_lcd.o(i.LCD_Init) refers to bsp_lcd.o(i.LCD_reset) for LCD_reset
    bsp_lcd.o(i.LCD_Init) refers to bsp_lcd.o(i.LCD_write) for LCD_write
    bsp_lcd.o(i.LCD_Init) refers to bsp_lcd.o(i.LCD_delay) for LCD_delay
    bsp_lcd.o(i.LCD_Init) refers to bsp_lcd.o(i.LCD_clear) for LCD_clear
    bsp_lcd.o(i.LCD_clear) refers to bsp_lcd.o(i.LCD_set_window) for LCD_set_window
    bsp_lcd.o(i.LCD_clear) refers to bsp_lcd.o(i.LCD_write) for LCD_write
    bsp_lcd.o(i.LCD_reset) refers to bsp_lcd.o(i.LCD_delay) for LCD_delay
    bsp_lcd.o(i.LCD_set_window) refers to bsp_lcd.o(i.LCD_write) for LCD_write
    bsp_lcd.o(i.LCD_write) refers to bsp_lcd.o(i.spi_send_byte) for spi_send_byte
    bsp_lcd.o(i.LCD_write_data) refers to bsp_lcd.o(i.spi_send_byte) for spi_send_byte
    bsp_lcd.o(i.lcd_gpio_init) refers to gd32f10x_rcu.o(i.rcu_periph_clock_enable) for rcu_periph_clock_enable
    bsp_lcd.o(i.lcd_gpio_init) refers to gd32f10x_gpio.o(i.gpio_init) for gpio_init
    bsp_lcd.o(i.lcd_spi_init) refers to gd32f10x_rcu.o(i.rcu_periph_clock_enable) for rcu_periph_clock_enable
    bsp_lcd.o(i.lcd_spi_init) refers to gd32f10x_spi.o(i.spi_init) for spi_init
    bsp_lcd.o(i.lcd_spi_init) refers to gd32f10x_spi.o(i.spi_enable) for spi_enable
    bsp_lcd.o(i.spi_send_byte) refers to gd32f10x_spi.o(i.spi_i2s_flag_get) for spi_i2s_flag_get
    bsp_lcd.o(i.spi_send_byte) refers to gd32f10x_spi.o(i.spi_i2s_data_transmit) for spi_i2s_data_transmit
    bsp_lcd.o(i.spi_send_byte) refers to gd32f10x_spi.o(i.spi_i2s_data_receive) for spi_i2s_data_receive
    gd32f10x_it.o(i.SysTick_Handler) refers to sys_config.o(i.taskTicksInc) for taskTicksInc
    gd32f10x_it.o(i.UART3_IRQHandler) refers to bsp_uart.o(i.UART_IRQn) for UART_IRQn
    gd32f10x_it.o(i.UART3_IRQHandler) refers to bsp_uart.o(.bss) for g_tUart3
    gd32f10x_it.o(i.USART0_IRQHandler) refers to bsp_uart.o(i.UART_IRQn) for UART_IRQn
    gd32f10x_it.o(i.USART0_IRQHandler) refers to bsp_uart.o(.bss) for g_tUart0
    gd32f10x_it.o(i.USART2_IRQHandler) refers to bsp_uart.o(i.UART_IRQn) for UART_IRQn
    gd32f10x_it.o(i.USART2_IRQHandler) refers to bsp_uart.o(.bss) for g_tUart3
    main.o(i.BSP_Init) refers to bsp_gpio.o(i.BSP_GPIO_Init) for BSP_GPIO_Init
    main.o(i.BSP_Init) refers to bsp_eeprom.o(i.BSP_EEPROM_Init) for BSP_EEPROM_Init
    main.o(i.BSP_Init) refers to bsp_adc.o(i.BSP_ADC_Init) for BSP_ADC_Init
    main.o(i.BSP_Init) refers to bsp_key.o(i.BSP_Key_Init) for BSP_Key_Init
    main.o(i.BSP_Init) refers to bsp_pwm.o(i.BSP_PWM_Init) for BSP_PWM_Init
    main.o(i.BSP_Init) refers to bsp_rtc.o(i.BSP_RTC_Init) for BSP_RTC_Init
    main.o(i.BSP_Init) refers to bsp_timer.o(i.BSP_TIM_Init) for BSP_TIM_Init
    main.o(i.BSP_Init) refers to bsp_uart.o(i.BSP_Uart_Init) for BSP_Uart_Init
    main.o(i.BSP_Init) refers to bsp_pwm.o(i.SetLcdBacklight) for SetLcdBacklight
    main.o(i.BSP_Init) refers to bsp_lcd.o(i.LCD_Init) for LCD_Init
    main.o(i.main) refers to sys_config.o(i.setSystemTick) for setSystemTick
    main.o(i.main) refers to main.o(i.BSP_Init) for BSP_Init
    main.o(i.main) refers to task_manage.o(i.SYS_Param_Init) for SYS_Param_Init
    main.o(i.main) refers to task_gui.o(i.HMI_start) for HMI_start
    main.o(i.main) refers to sys.o(i.delay_ms) for delay_ms
    main.o(i.main) refers to bsp_timer.o(i.TimerGetCnt) for TimerGetCnt
    main.o(i.main) refers to bsp_key.o(i.bsp_KeyScan) for bsp_KeyScan
    main.o(i.main) refers to task_status.o(i.Task_status) for Task_status
    main.o(i.main) refers to task_manage.o(i.Task_manage) for Task_manage
    main.o(i.main) refers to task_dose.o(i.Task_dose) for Task_dose
    main.o(i.main) refers to task_status.o(i.Task_bat) for Task_bat
    main.o(i.main) refers to task_manage.o(i.eepromSetStatus) for eepromSetStatus
    main.o(i.main) refers to task_gui.o(i.Task_HMI) for Task_HMI
    main.o(i.main) refers to task_com.o(i.Task_com) for Task_com
    main.o(i.main) refers to main.o(.data) for basicParam
    main.o(i.main) refers to task_gui.o(.data) for blTime
    sys.o(i.StrTo64Int) refers to strchr.o(.text) for strchr
    sys.o(i.StrToFloat) refers to f2d.o(x$fpl$f2d) for __aeabi_f2d
    sys.o(i.StrToFloat) refers to dmul.o(x$fpl$dmul) for __aeabi_dmul
    sys.o(i.StrToFloat) refers to d2f.o(x$fpl$d2f) for __aeabi_d2f
    sys.o(i.StrToFloat) refers to fflt_clz.o(x$fpl$fflt) for __aeabi_i2f
    sys.o(i.StrToFloat) refers to fmul.o(x$fpl$fmul) for __aeabi_fmul
    sys.o(i.StrToFloat) refers to faddsub_clz.o(x$fpl$fadd) for __aeabi_fadd
    sys.o(i.StrToFloat) refers to fflt_clz.o(x$fpl$ffltu) for __aeabi_ui2f
    sys.o(i.StrTodouble) refers to dmul.o(x$fpl$dmul) for __aeabi_dmul
    sys.o(i.StrTodouble) refers to dflt_clz.o(x$fpl$dflt) for __aeabi_i2d
    sys.o(i.StrTodouble) refers to daddsub_clz.o(x$fpl$dadd) for __aeabi_dadd
    sys.o(i.StrTodouble) refers to dflt_clz.o(x$fpl$dfltu) for __aeabi_ui2d
    sys.o(i.delay_ms) refers to sys.o(i.delay_us) for delay_us
    sys_config.o(i.getTaskTicks) refers to sys_config.o(.data) for g_taskTicks
    sys_config.o(i.setSystemTick) refers to sys_config.o(i.NVIC_SetPriority) for NVIC_SetPriority
    sys_config.o(i.setSystemTick) refers to system_gd32f10x.o(.data) for SystemCoreClock
    sys_config.o(i.taskTicksInc) refers to sys_config.o(.data) for g_taskTicks
    task_com.o(i.DebugDataParse) refers to bsp_uart.o(i.uart_send_buf) for uart_send_buf
    task_com.o(i.DebugDataParse) refers to bsp_uart.o(.bss) for g_tUart0
    task_com.o(i.DetectoCom) refers to scanf1.o(x$fpl$scanf1) for _scanf_real
    task_com.o(i.DetectoCom) refers to memcmp.o(.text) for memcmp
    task_com.o(i.DetectoCom) refers to __0sscanf.o(.text) for __0sscanf
    task_com.o(i.DetectoCom) refers to bsp_uart.o(i.uart_send_buf) for uart_send_buf
    task_com.o(i.DetectoCom) refers to bsp_uart.o(.bss) for g_tUart3
    task_com.o(i.DetectoCom) refers to task_com.o(.data) for Detector_group
    task_com.o(i.DetectoCom) refers to main.o(.data) for extDtDoserate
    task_com.o(i.Task_com) refers to task_com.o(i.DetectoCom) for DetectoCom
    task_com.o(i.Task_com) refers to task_com.o(i.DebugDataParse) for DebugDataParse
    task_com.o(i.Task_com) refers to bsp_uart.o(.bss) for g_tUart0
    task_gui.o(i.HMI_start) refers to gui.o(i.GUI_SetString2412) for GUI_SetString2412
    task_gui.o(i.HMI_start) refers to gui.o(i.GUI_Refresh) for GUI_Refresh
    task_gui.o(i.Task_HMI) refers to bsp_key.o(i.bsp_GetKey) for bsp_GetKey
    task_gui.o(i.Task_HMI) refers to bsp_pwm.o(i.SetLcdBacklight) for SetLcdBacklight
    task_gui.o(i.Task_HMI) refers to gui.o(i.GUI_Refresh) for GUI_Refresh
    task_gui.o(i.Task_HMI) refers to main.o(.data) for basicParam
    task_gui.o(i.Task_HMI) refers to task_gui.o(.data) for blTime
    task_gui.o(i.menu01) refers to display.o(i.Display_statusBar) for Display_statusBar
    task_gui.o(i.menu01) refers to gui.o(i.GUI_SetString2424) for GUI_SetString2424
    task_gui.o(i.menu01) refers to gui.o(i.GUI_SetLine) for GUI_SetLine
    task_gui.o(i.menu011) refers to display.o(i.Display_statusBar) for Display_statusBar
    task_gui.o(i.menu011) refers to gui.o(i.GUI_SetString1616) for GUI_SetString1616
    task_gui.o(i.menu011) refers to gui.o(i.GUI_SetLine) for GUI_SetLine
    task_gui.o(i.menu011) refers to main.o(.data) for basicParam
    task_gui.o(i.menu0111) refers to task_manage.o(i.eepromSetStatus) for eepromSetStatus
    task_gui.o(i.menu0111) refers to display.o(i.Display_statusBar) for Display_statusBar
    task_gui.o(i.menu0111) refers to gui.o(i.GUI_SetString1616) for GUI_SetString1616
    task_gui.o(i.menu0111) refers to gui.o(i.GUI_SetLine) for GUI_SetLine
    task_gui.o(i.menu0111) refers to task_gui.o(.data) for preMenuIndex
    task_gui.o(i.menu0111) refers to main.o(.data) for basicParam
    task_gui.o(i.menu012) refers to _printf_pad.o(.text) for _printf_pre_padding
    task_gui.o(i.menu012) refers to _printf_percent.o(.ARM.Collect$$_printf_percent$$00000000) for _printf_percent
    task_gui.o(i.menu012) refers to _printf_d.o(.ARM.Collect$$_printf_percent$$00000009) for _printf_d
    task_gui.o(i.menu012) refers to _printf_dec.o(.text) for _printf_int_dec
    task_gui.o(i.menu012) refers to bsp_rtc.o(i.Get_RTC_Time) for Get_RTC_Time
    task_gui.o(i.menu012) refers to display.o(i.Display_statusBar) for Display_statusBar
    task_gui.o(i.menu012) refers to gui.o(i.GUI_SetString1616) for GUI_SetString1616
    task_gui.o(i.menu012) refers to gui.o(i.GUI_SetLine) for GUI_SetLine
    task_gui.o(i.menu012) refers to noretval__2sprintf.o(.text) for __2sprintf
    task_gui.o(i.menu012) refers to gui.o(i.GUI_SetString2412) for GUI_SetString2412
    task_gui.o(i.menu0121) refers to _printf_pad.o(.text) for _printf_pre_padding
    task_gui.o(i.menu0121) refers to _printf_percent.o(.ARM.Collect$$_printf_percent$$00000000) for _printf_percent
    task_gui.o(i.menu0121) refers to _printf_d.o(.ARM.Collect$$_printf_percent$$00000009) for _printf_d
    task_gui.o(i.menu0121) refers to _printf_dec.o(.text) for _printf_int_dec
    task_gui.o(i.menu0121) refers to bsp_rtc.o(i.Get_RTC_Time) for Get_RTC_Time
    task_gui.o(i.menu0121) refers to bsp_rtc.o(i.Set_RTC_Time) for Set_RTC_Time
    task_gui.o(i.menu0121) refers to display.o(i.Display_statusBar) for Display_statusBar
    task_gui.o(i.menu0121) refers to gui.o(i.GUI_SetString1616) for GUI_SetString1616
    task_gui.o(i.menu0121) refers to gui.o(i.GUI_SetLine) for GUI_SetLine
    task_gui.o(i.menu0121) refers to noretval__2sprintf.o(.text) for __2sprintf
    task_gui.o(i.menu0121) refers to gui.o(i.GUI_SetString2412) for GUI_SetString2412
    task_gui.o(i.menu0121) refers to task_gui.o(.data) for preMenuIndex
    task_gui.o(i.menu013) refers to _printf_pad.o(.text) for _printf_pre_padding
    task_gui.o(i.menu013) refers to _printf_percent.o(.ARM.Collect$$_printf_percent$$00000000) for _printf_percent
    task_gui.o(i.menu013) refers to _printf_d.o(.ARM.Collect$$_printf_percent$$00000009) for _printf_d
    task_gui.o(i.menu013) refers to _printf_dec.o(.text) for _printf_int_dec
    task_gui.o(i.menu013) refers to bsp_rtc.o(i.Get_RTC_Time) for Get_RTC_Time
    task_gui.o(i.menu013) refers to display.o(i.Display_statusBar) for Display_statusBar
    task_gui.o(i.menu013) refers to gui.o(i.GUI_SetString1616) for GUI_SetString1616
    task_gui.o(i.menu013) refers to gui.o(i.GUI_SetLine) for GUI_SetLine
    task_gui.o(i.menu013) refers to noretval__2sprintf.o(.text) for __2sprintf
    task_gui.o(i.menu013) refers to gui.o(i.GUI_SetString2412) for GUI_SetString2412
    task_gui.o(i.menu0131) refers to _printf_pad.o(.text) for _printf_pre_padding
    task_gui.o(i.menu0131) refers to _printf_percent.o(.ARM.Collect$$_printf_percent$$00000000) for _printf_percent
    task_gui.o(i.menu0131) refers to _printf_d.o(.ARM.Collect$$_printf_percent$$00000009) for _printf_d
    task_gui.o(i.menu0131) refers to _printf_dec.o(.text) for _printf_int_dec
    task_gui.o(i.menu0131) refers to bsp_rtc.o(i.Get_RTC_Time) for Get_RTC_Time
    task_gui.o(i.menu0131) refers to bsp_rtc.o(i.Set_RTC_Time) for Set_RTC_Time
    task_gui.o(i.menu0131) refers to display.o(i.Display_statusBar) for Display_statusBar
    task_gui.o(i.menu0131) refers to gui.o(i.GUI_SetString1616) for GUI_SetString1616
    task_gui.o(i.menu0131) refers to gui.o(i.GUI_SetLine) for GUI_SetLine
    task_gui.o(i.menu0131) refers to noretval__2sprintf.o(.text) for __2sprintf
    task_gui.o(i.menu0131) refers to gui.o(i.GUI_SetString2412) for GUI_SetString2412
    task_gui.o(i.menu0131) refers to task_gui.o(.data) for preMenuIndex
    task_gui.o(i.menu014) refers to display.o(i.Display_statusBar) for Display_statusBar
    task_gui.o(i.menu014) refers to gui.o(i.GUI_SetString1616) for GUI_SetString1616
    task_gui.o(i.menu014) refers to gui.o(i.GUI_SetLine) for GUI_SetLine
    task_gui.o(i.menu014) refers to display.o(i.Display_brightness) for Display_brightness
    task_gui.o(i.menu014) refers to main.o(.data) for basicParam
    task_gui.o(i.menu0141) refers to task_manage.o(i.eepromSetStatus) for eepromSetStatus
    task_gui.o(i.menu0141) refers to display.o(i.Display_statusBar) for Display_statusBar
    task_gui.o(i.menu0141) refers to gui.o(i.GUI_SetString1616) for GUI_SetString1616
    task_gui.o(i.menu0141) refers to gui.o(i.GUI_SetLine) for GUI_SetLine
    task_gui.o(i.menu0141) refers to display.o(i.Display_brightness) for Display_brightness
    task_gui.o(i.menu0141) refers to bsp_pwm.o(i.SetLcdBacklight) for SetLcdBacklight
    task_gui.o(i.menu0141) refers to task_gui.o(.data) for preMenuIndex
    task_gui.o(i.menu0141) refers to main.o(.data) for basicParam
    task_gui.o(i.menu015) refers to _printf_percent.o(.ARM.Collect$$_printf_percent$$00000000) for _printf_percent
    task_gui.o(i.menu015) refers to _printf_d.o(.ARM.Collect$$_printf_percent$$00000009) for _printf_d
    task_gui.o(i.menu015) refers to _printf_dec.o(.text) for _printf_int_dec
    task_gui.o(i.menu015) refers to display.o(i.Display_statusBar) for Display_statusBar
    task_gui.o(i.menu015) refers to gui.o(i.GUI_SetString1616) for GUI_SetString1616
    task_gui.o(i.menu015) refers to gui.o(i.GUI_SetLine) for GUI_SetLine
    task_gui.o(i.menu015) refers to noretval__2sprintf.o(.text) for __2sprintf
    task_gui.o(i.menu015) refers to gui.o(i.GUI_SetString2412) for GUI_SetString2412
    task_gui.o(i.menu015) refers to main.o(.data) for basicParam
    task_gui.o(i.menu0151) refers to _printf_percent.o(.ARM.Collect$$_printf_percent$$00000000) for _printf_percent
    task_gui.o(i.menu0151) refers to _printf_d.o(.ARM.Collect$$_printf_percent$$00000009) for _printf_d
    task_gui.o(i.menu0151) refers to _printf_dec.o(.text) for _printf_int_dec
    task_gui.o(i.menu0151) refers to task_manage.o(i.eepromSetStatus) for eepromSetStatus
    task_gui.o(i.menu0151) refers to display.o(i.Display_statusBar) for Display_statusBar
    task_gui.o(i.menu0151) refers to gui.o(i.GUI_SetString1616) for GUI_SetString1616
    task_gui.o(i.menu0151) refers to gui.o(i.GUI_SetLine) for GUI_SetLine
    task_gui.o(i.menu0151) refers to noretval__2sprintf.o(.text) for __2sprintf
    task_gui.o(i.menu0151) refers to gui.o(i.GUI_SetString2412) for GUI_SetString2412
    task_gui.o(i.menu0151) refers to task_gui.o(.data) for preMenuIndex
    task_gui.o(i.menu0151) refers to main.o(.data) for basicParam
    task_gui.o(i.menu02) refers to display.o(i.Display_statusBar) for Display_statusBar
    task_gui.o(i.menu02) refers to gui.o(i.GUI_SetString2424) for GUI_SetString2424
    task_gui.o(i.menu02) refers to gui.o(i.GUI_SetLine) for GUI_SetLine
    task_gui.o(i.menu03) refers to display.o(i.Display_statusBar) for Display_statusBar
    task_gui.o(i.menu03) refers to gui.o(i.GUI_SetString2424) for GUI_SetString2424
    task_gui.o(i.menu03) refers to gui.o(i.GUI_SetChar2412) for GUI_SetChar2412
    task_gui.o(i.menu03) refers to gui.o(i.GUI_SetLine) for GUI_SetLine
    task_gui.o(i.menu03) refers to task_gui.o(.data) for preMenuIndex
    task_gui.o(i.menu03) refers to main.o(.data) for passWord
    task_gui.o(i.menu1) refers to display.o(i.Display_statusBar) for Display_statusBar
    task_gui.o(i.menu1) refers to gui.o(i.GUI_SetLine) for GUI_SetLine
    task_gui.o(i.menu1) refers to gui.o(i.GUI_SetString1616) for GUI_SetString1616
    task_gui.o(i.menu11) refers to display.o(i.Display_statusBar) for Display_statusBar
    task_gui.o(i.menu11) refers to gui.o(i.GUI_SetLine) for GUI_SetLine
    task_gui.o(i.menu11) refers to gui.o(i.GUI_SetString1616) for GUI_SetString1616
    task_gui.o(i.menu111) refers to fflt_clz.o(x$fpl$ffltu) for __aeabi_ui2f
    task_gui.o(i.menu111) refers to fdiv.o(x$fpl$fdiv) for __aeabi_fdiv
    task_gui.o(i.menu111) refers to task_manage.o(i.eepromSetStatus) for eepromSetStatus
    task_gui.o(i.menu111) refers to display.o(i.GetDoseUnit) for GetDoseUnit
    task_gui.o(i.menu111) refers to fmul.o(x$fpl$fmul) for __aeabi_fmul
    task_gui.o(i.menu111) refers to ffixu.o(x$fpl$ffixu) for __aeabi_f2uiz
    task_gui.o(i.menu111) refers to display.o(i.Display_statusBar) for Display_statusBar
    task_gui.o(i.menu111) refers to gui.o(i.GUI_SetLine) for GUI_SetLine
    task_gui.o(i.menu111) refers to gui.o(i.GUI_SetString1616) for GUI_SetString1616
    task_gui.o(i.menu111) refers to display.o(i.Display_setWarnVal) for Display_setWarnVal
    task_gui.o(i.menu111) refers to task_gui.o(.data) for preMenuIndex
    task_gui.o(i.menu111) refers to main.o(.data) for warnRangeRate
    task_gui.o(i.menu12) refers to display.o(i.Display_statusBar) for Display_statusBar
    task_gui.o(i.menu12) refers to gui.o(i.GUI_SetLine) for GUI_SetLine
    task_gui.o(i.menu12) refers to gui.o(i.GUI_SetString1616) for GUI_SetString1616
    task_gui.o(i.menu121) refers to fflt_clz.o(x$fpl$ffltu) for __aeabi_ui2f
    task_gui.o(i.menu121) refers to fdiv.o(x$fpl$fdiv) for __aeabi_fdiv
    task_gui.o(i.menu121) refers to task_manage.o(i.eepromSetStatus) for eepromSetStatus
    task_gui.o(i.menu121) refers to display.o(i.GetDoseUnit) for GetDoseUnit
    task_gui.o(i.menu121) refers to fmul.o(x$fpl$fmul) for __aeabi_fmul
    task_gui.o(i.menu121) refers to ffixu.o(x$fpl$ffixu) for __aeabi_f2uiz
    task_gui.o(i.menu121) refers to display.o(i.Display_statusBar) for Display_statusBar
    task_gui.o(i.menu121) refers to gui.o(i.GUI_SetLine) for GUI_SetLine
    task_gui.o(i.menu121) refers to gui.o(i.GUI_SetString1616) for GUI_SetString1616
    task_gui.o(i.menu121) refers to display.o(i.Display_setWarnVal) for Display_setWarnVal
    task_gui.o(i.menu121) refers to task_gui.o(.data) for preMenuIndex
    task_gui.o(i.menu121) refers to main.o(.data) for warnRangeDose
    task_gui.o(i.menu2) refers to display.o(i.Display_statusBar) for Display_statusBar
    task_gui.o(i.menu2) refers to gui.o(i.GUI_SetLine) for GUI_SetLine
    task_gui.o(i.menu2) refers to gui.o(i.GUI_SetString1616) for GUI_SetString1616
    task_gui.o(i.menu21) refers to display.o(i.Display_statusBar) for Display_statusBar
    task_gui.o(i.menu21) refers to gui.o(i.GUI_SetLine) for GUI_SetLine
    task_gui.o(i.menu21) refers to gui.o(i.GUI_SetString1616) for GUI_SetString1616
    task_gui.o(i.menu211) refers to task_manage.o(i.eepromSetStatus) for eepromSetStatus
    task_gui.o(i.menu211) refers to display.o(i.Display_statusBar) for Display_statusBar
    task_gui.o(i.menu211) refers to gui.o(i.GUI_SetString1616) for GUI_SetString1616
    task_gui.o(i.menu211) refers to gui.o(i.GUI_SetLine) for GUI_SetLine
    task_gui.o(i.menu211) refers to display.o(i.Display_unitParam) for Display_unitParam
    task_gui.o(i.menu211) refers to task_gui.o(.data) for preMenuIndex
    task_gui.o(i.menu211) refers to main.o(.data) for displayUnit
    task_gui.o(i.menu22) refers to display.o(i.Display_statusBar) for Display_statusBar
    task_gui.o(i.menu22) refers to gui.o(i.GUI_SetLine) for GUI_SetLine
    task_gui.o(i.menu22) refers to gui.o(i.GUI_SetString1616) for GUI_SetString1616
    task_gui.o(i.menu221) refers to task_manage.o(i.eepromSetStatus) for eepromSetStatus
    task_gui.o(i.menu221) refers to display.o(i.Display_statusBar) for Display_statusBar
    task_gui.o(i.menu221) refers to gui.o(i.GUI_SetLine) for GUI_SetLine
    task_gui.o(i.menu221) refers to gui.o(i.GUI_SetString1616) for GUI_SetString1616
    task_gui.o(i.menu221) refers to task_gui.o(.data) for preMenuIndex
    task_gui.o(i.menu221) refers to main.o(.data) for detectorType
    task_gui.o(i.menu23) refers to display.o(i.Display_statusBar) for Display_statusBar
    task_gui.o(i.menu23) refers to gui.o(i.GUI_SetLine) for GUI_SetLine
    task_gui.o(i.menu23) refers to gui.o(i.GUI_SetString1616) for GUI_SetString1616
    task_gui.o(i.menu231) refers to fflt_clz.o(x$fpl$ffltu) for __aeabi_ui2f
    task_gui.o(i.menu231) refers to fdiv.o(x$fpl$fdiv) for __aeabi_fdiv
    task_gui.o(i.menu231) refers to task_manage.o(i.eepromSetStatus) for eepromSetStatus
    task_gui.o(i.menu231) refers to fmul.o(x$fpl$fmul) for __aeabi_fmul
    task_gui.o(i.menu231) refers to ffixu.o(x$fpl$ffixu) for __aeabi_f2uiz
    task_gui.o(i.menu231) refers to display.o(i.Display_statusBar) for Display_statusBar
    task_gui.o(i.menu231) refers to gui.o(i.GUI_SetLine) for GUI_SetLine
    task_gui.o(i.menu231) refers to gui.o(i.GUI_SetString1616) for GUI_SetString1616
    task_gui.o(i.menu231) refers to display.o(i.Display_setDtFactor) for Display_setDtFactor
    task_gui.o(i.menu231) refers to task_gui.o(.data) for preMenuIndex
    task_gui.o(i.menu231) refers to task_dose.o(.bss) for Chn_Data
    task_gui.o(i.menu3) refers to display.o(i.Display_statusBar) for Display_statusBar
    task_gui.o(i.menu3) refers to gui.o(i.GUI_SetLine) for GUI_SetLine
    task_gui.o(i.menu3) refers to gui.o(i.GUI_SetString1616) for GUI_SetString1616
    task_gui.o(i.menu31) refers to display.o(i.Display_statusBar) for Display_statusBar
    task_gui.o(i.menu31) refers to gui.o(i.GUI_SetLine) for GUI_SetLine
    task_gui.o(i.menu31) refers to gui.o(i.GUI_SetString1616) for GUI_SetString1616
    task_gui.o(i.menu311) refers to display.o(i.Display_statusBar) for Display_statusBar
    task_gui.o(i.menu311) refers to gui.o(i.GUI_SetLine) for GUI_SetLine
    task_gui.o(i.menu311) refers to gui.o(i.GUI_SetString1616) for GUI_SetString1616
    task_gui.o(i.menu311) refers to gui.o(i.GUI_SetString2424) for GUI_SetString2424
    task_gui.o(i.menu311) refers to task_manage.o(i.eepromSetStatus) for eepromSetStatus
    task_gui.o(i.menu311) refers to task_gui.o(.data) for preMenuIndex
    task_gui.o(i.menu311) refers to task_dose.o(.data) for intDoseParam
    task_gui.o(i.menu4) refers to display.o(i.Display_statusBar) for Display_statusBar
    task_gui.o(i.menu4) refers to gui.o(i.GUI_SetLine) for GUI_SetLine
    task_gui.o(i.menu4) refers to gui.o(i.GUI_SetString1616) for GUI_SetString1616
    task_gui.o(i.menu41) refers to display.o(i.Display_statusBar) for Display_statusBar
    task_gui.o(i.menu41) refers to gui.o(i.GUI_SetLine) for GUI_SetLine
    task_gui.o(i.menu41) refers to gui.o(i.GUI_SetString1616) for GUI_SetString1616
    task_gui.o(i.menu42) refers to display.o(i.Display_statusBar) for Display_statusBar
    task_gui.o(i.menu42) refers to gui.o(i.GUI_SetLine) for GUI_SetLine
    task_gui.o(i.menu42) refers to gui.o(i.GUI_SetString1616) for GUI_SetString1616
    task_gui.o(i.menu43) refers to display.o(i.Display_statusBar) for Display_statusBar
    task_gui.o(i.menu43) refers to gui.o(i.GUI_SetLine) for GUI_SetLine
    task_gui.o(i.menu43) refers to gui.o(i.GUI_SetString1616) for GUI_SetString1616
    task_gui.o(i.menu44) refers to display.o(i.Display_statusBar) for Display_statusBar
    task_gui.o(i.menu44) refers to gui.o(i.GUI_SetLine) for GUI_SetLine
    task_gui.o(i.menu44) refers to gui.o(i.GUI_SetString1616) for GUI_SetString1616
    task_gui.o(i.menu5) refers to display.o(i.Display_statusBar) for Display_statusBar
    task_gui.o(i.menu5) refers to gui.o(i.GUI_SetLine) for GUI_SetLine
    task_gui.o(i.menu5) refers to gui.o(i.GUI_SetString1616) for GUI_SetString1616
    task_gui.o(i.menu51) refers to display.o(i.Display_statusBar) for Display_statusBar
    task_gui.o(i.menu51) refers to gui.o(i.GUI_SetLine) for GUI_SetLine
    task_gui.o(i.menu51) refers to gui.o(i.GUI_SetString1616) for GUI_SetString1616
    task_gui.o(i.menu511) refers to task_manage.o(i.eepromSetStatus) for eepromSetStatus
    task_gui.o(i.menu511) refers to display.o(i.Display_statusBar) for Display_statusBar
    task_gui.o(i.menu511) refers to gui.o(i.GUI_SetString2424) for GUI_SetString2424
    task_gui.o(i.menu511) refers to gui.o(i.GUI_SetChar2412) for GUI_SetChar2412
    task_gui.o(i.menu511) refers to gui.o(i.GUI_SetLine) for GUI_SetLine
    task_gui.o(i.menu511) refers to task_gui.o(.data) for preMenuIndex
    task_gui.o(i.menu511) refers to main.o(.data) for passWord
    task_gui.o(i.menu61) refers to display.o(i.Display_statusBar) for Display_statusBar
    task_gui.o(i.menu61) refers to gui.o(i.GUI_SetLine) for GUI_SetLine
    task_gui.o(i.menu61) refers to gui.o(i.GUI_SetString1616) for GUI_SetString1616
    task_gui.o(i.menu611) refers to display.o(i.Display_statusBar) for Display_statusBar
    task_gui.o(i.menu611) refers to gui.o(i.GUI_SetLine) for GUI_SetLine
    task_gui.o(i.menu611) refers to gui.o(i.GUI_SetString1616) for GUI_SetString1616
    task_gui.o(i.menu611) refers to display.o(i.Display_CNT) for Display_CNT
    task_gui.o(i.menu611) refers to task_dose.o(.data) for smoothCnt
    task_gui.o(i.menu62) refers to display.o(i.Display_statusBar) for Display_statusBar
    task_gui.o(i.menu62) refers to gui.o(i.GUI_SetLine) for GUI_SetLine
    task_gui.o(i.menu62) refers to gui.o(i.GUI_SetString1616) for GUI_SetString1616
    task_gui.o(i.menu621) refers to fflt_clz.o(x$fpl$ffltu) for __aeabi_ui2f
    task_gui.o(i.menu621) refers to fmul.o(x$fpl$fmul) for __aeabi_fmul
    task_gui.o(i.menu621) refers to task_manage.o(i.eepromSetStatus) for eepromSetStatus
    task_gui.o(i.menu621) refers to ffixu.o(x$fpl$ffixu) for __aeabi_f2uiz
    task_gui.o(i.menu621) refers to display.o(i.Display_statusBar) for Display_statusBar
    task_gui.o(i.menu621) refers to gui.o(i.GUI_SetString2424) for GUI_SetString2424
    task_gui.o(i.menu621) refers to display.o(i.Display_setFactor) for Display_setFactor
    task_gui.o(i.menu621) refers to gui.o(i.GUI_SetLine) for GUI_SetLine
    task_gui.o(i.menu621) refers to task_gui.o(.data) for preMenuIndex
    task_gui.o(i.menu621) refers to task_dose.o(.data) for intDoseParam
    task_gui.o(i.menu63) refers to display.o(i.Display_statusBar) for Display_statusBar
    task_gui.o(i.menu63) refers to gui.o(i.GUI_SetLine) for GUI_SetLine
    task_gui.o(i.menu63) refers to gui.o(i.GUI_SetString1616) for GUI_SetString1616
    task_gui.o(i.menu631) refers to fflt_clz.o(x$fpl$ffltu) for __aeabi_ui2f
    task_gui.o(i.menu631) refers to fmul.o(x$fpl$fmul) for __aeabi_fmul
    task_gui.o(i.menu631) refers to task_manage.o(i.eepromSetStatus) for eepromSetStatus
    task_gui.o(i.menu631) refers to ffixu.o(x$fpl$ffixu) for __aeabi_f2uiz
    task_gui.o(i.menu631) refers to display.o(i.Display_statusBar) for Display_statusBar
    task_gui.o(i.menu631) refers to gui.o(i.GUI_SetString2424) for GUI_SetString2424
    task_gui.o(i.menu631) refers to display.o(i.Display_setDeadtime) for Display_setDeadtime
    task_gui.o(i.menu631) refers to gui.o(i.GUI_SetLine) for GUI_SetLine
    task_gui.o(i.menu631) refers to task_gui.o(.data) for preMenuIndex
    task_gui.o(i.menu631) refers to task_dose.o(.data) for intDoseParam
    task_gui.o(i.menu_main1) refers to gui.o(i.GUI_SetLine) for GUI_SetLine
    task_gui.o(i.menu_main1) refers to gui.o(i.GUI_SetString1616) for GUI_SetString1616
    task_gui.o(i.menu_main1) refers to display.o(i.Display_bat) for Display_bat
    task_gui.o(i.menu_main1) refers to display.o(i.display_time) for display_time
    task_gui.o(i.menu_main1) refers to display.o(i.Display_doseVal) for Display_doseVal
    task_gui.o(i.menu_main1) refers to display.o(i.GetDoseUnit) for GetDoseUnit
    task_gui.o(i.menu_main1) refers to display.o(i.Display_dose) for Display_dose
    task_gui.o(i.menu_main1) refers to fdiv.o(x$fpl$fdiv) for __aeabi_fdiv
    task_gui.o(i.menu_main1) refers to fmul.o(x$fpl$fmul) for __aeabi_fmul
    task_gui.o(i.menu_main1) refers to ffixu.o(x$fpl$ffixu) for __aeabi_f2uiz
    task_gui.o(i.menu_main1) refers to display.o(i.Display_ProgressBar) for Display_ProgressBar
    task_gui.o(i.menu_main1) refers to main.o(.data) for displayUnit
    task_gui.o(i.menu_main1) refers to task_dose.o(.data) for intDoseParam
    task_gui.o(i.menu_main2) refers to gui.o(i.GUI_SetLine) for GUI_SetLine
    task_gui.o(i.menu_main2) refers to gui.o(i.GUI_SetString1616) for GUI_SetString1616
    task_gui.o(i.menu_main2) refers to display.o(i.Display_bat) for Display_bat
    task_gui.o(i.menu_main2) refers to display.o(i.display_time) for display_time
    task_gui.o(i.menu_main2) refers to display.o(i.Display_doseVal) for Display_doseVal
    task_gui.o(i.menu_main2) refers to display.o(i.GetDoseUnit) for GetDoseUnit
    task_gui.o(i.menu_main2) refers to display.o(i.Display_dose) for Display_dose
    task_gui.o(i.menu_main2) refers to fdiv.o(x$fpl$fdiv) for __aeabi_fdiv
    task_gui.o(i.menu_main2) refers to fmul.o(x$fpl$fmul) for __aeabi_fmul
    task_gui.o(i.menu_main2) refers to ffixu.o(x$fpl$ffixu) for __aeabi_f2uiz
    task_gui.o(i.menu_main2) refers to display.o(i.Display_ProgressBar) for Display_ProgressBar
    task_gui.o(i.menu_main2) refers to main.o(.data) for detectorType
    task_gui.o(i.menu_main2) refers to task_dose.o(.bss) for Chn_Data
    task_gui.o(i.menu_main2) refers to task_dose.o(.data) for intDoseParam
    task_gui.o(i.menu_shutdown) refers to gui.o(i.GUI_SetString2412) for GUI_SetString2412
    task_gui.o(i.menu_shutdown) refers to gui.o(i.GUI_Refresh) for GUI_Refresh
    task_gui.o(i.menu_shutdown) refers to sys.o(i.delay_ms) for delay_ms
    task_gui.o(i.menu_shutdown) refers to bsp_pwm.o(i.SetLcdBacklight) for SetLcdBacklight
    task_gui.o(i.menu_shutdown) refers to bsp_gpio.o(i.PWR_shutdown) for PWR_shutdown
    task_gui.o(.data) refers to task_gui.o(i.menu_shutdown) for menu_shutdown
    task_gui.o(.data) refers to task_gui.o(i.menu_main1) for menu_main1
    task_gui.o(.data) refers to task_gui.o(i.menu_main2) for menu_main2
    task_gui.o(.data) refers to task_gui.o(i.menu_main3) for menu_main3
    task_gui.o(.data) refers to task_gui.o(i.menu01) for menu01
    task_gui.o(.data) refers to task_gui.o(i.menu02) for menu02
    task_gui.o(.data) refers to task_gui.o(i.menu03) for menu03
    task_gui.o(.data) refers to task_gui.o(i.menu011) for menu011
    task_gui.o(.data) refers to task_gui.o(i.menu012) for menu012
    task_gui.o(.data) refers to task_gui.o(i.menu013) for menu013
    task_gui.o(.data) refers to task_gui.o(i.menu014) for menu014
    task_gui.o(.data) refers to task_gui.o(i.menu015) for menu015
    task_gui.o(.data) refers to task_gui.o(i.menu0111) for menu0111
    task_gui.o(.data) refers to task_gui.o(i.menu0121) for menu0121
    task_gui.o(.data) refers to task_gui.o(i.menu0131) for menu0131
    task_gui.o(.data) refers to task_gui.o(i.menu0141) for menu0141
    task_gui.o(.data) refers to task_gui.o(i.menu0151) for menu0151
    task_gui.o(.data) refers to task_gui.o(i.menu1) for menu1
    task_gui.o(.data) refers to task_gui.o(i.menu2) for menu2
    task_gui.o(.data) refers to task_gui.o(i.menu3) for menu3
    task_gui.o(.data) refers to task_gui.o(i.menu4) for menu4
    task_gui.o(.data) refers to task_gui.o(i.menu11) for menu11
    task_gui.o(.data) refers to task_gui.o(i.menu12) for menu12
    task_gui.o(.data) refers to task_gui.o(i.menu111) for menu111
    task_gui.o(.data) refers to task_gui.o(i.menu121) for menu121
    task_gui.o(.data) refers to task_gui.o(i.menu31) for menu31
    task_gui.o(.data) refers to task_gui.o(i.menu311) for menu311
    task_gui.o(.data) refers to task_gui.o(i.menu21) for menu21
    task_gui.o(.data) refers to task_gui.o(i.menu22) for menu22
    task_gui.o(.data) refers to task_gui.o(i.menu211) for menu211
    task_gui.o(.data) refers to task_gui.o(i.menu5) for menu5
    task_gui.o(.data) refers to task_gui.o(i.menu51) for menu51
    task_gui.o(.data) refers to task_gui.o(i.menu511) for menu511
    task_gui.o(.data) refers to task_gui.o(i.menu221) for menu221
    task_gui.o(.data) refers to task_gui.o(i.menu23) for menu23
    task_gui.o(.data) refers to task_gui.o(i.menu231) for menu231
    task_gui.o(.data) refers to task_gui.o(i.menu41) for menu41
    task_gui.o(.data) refers to task_gui.o(i.menu42) for menu42
    task_gui.o(.data) refers to task_gui.o(i.menu43) for menu43
    task_gui.o(.data) refers to task_gui.o(i.menu44) for menu44
    task_gui.o(.data) refers to task_gui.o(i.menu61) for menu61
    task_gui.o(.data) refers to task_gui.o(i.menu62) for menu62
    task_gui.o(.data) refers to task_gui.o(i.menu63) for menu63
    task_gui.o(.data) refers to task_gui.o(i.menu611) for menu611
    task_gui.o(.data) refers to task_gui.o(i.menu621) for menu621
    task_gui.o(.data) refers to task_gui.o(i.menu631) for menu631
    task_dose.o(i.ExtDoseCalc) refers to fflt_clz.o(x$fpl$ffltu) for __aeabi_ui2f
    task_dose.o(i.ExtDoseCalc) refers to fdiv.o(x$fpl$fdiv) for __aeabi_fdiv
    task_dose.o(i.ExtDoseCalc) refers to fleqf.o(x$fpl$fleqf) for __aeabi_cfcmple
    task_dose.o(i.ExtDoseCalc) refers to frleqf.o(x$fpl$frleqf) for __aeabi_cfrcmple
    task_dose.o(i.ExtDoseCalc) refers to task_dose.o(i.list_refresh) for list_refresh
    task_dose.o(i.ExtDoseCalc) refers to task_dose.o(i.list_add) for list_add
    task_dose.o(i.ExtDoseCalc) refers to fmul.o(x$fpl$fmul) for __aeabi_fmul
    task_dose.o(i.ExtDoseCalc) refers to task_dose.o(i.get_list_avage) for get_list_avage
    task_dose.o(i.ExtDoseCalc) refers to faddsub_clz.o(x$fpl$fsub) for __aeabi_fsub
    task_dose.o(i.ExtDoseCalc) refers to main.o(.data) for pulseCntExt
    task_dose.o(i.ExtDoseCalc) refers to task_dose.o(.bss) for Chn_Data
    task_dose.o(i.IntDoseCalc) refers to rt_memclr_w.o(.text) for __aeabi_memclr4
    task_dose.o(i.IntDoseCalc) refers to task_dose.o(i.BubbleSort) for BubbleSort
    task_dose.o(i.IntDoseCalc) refers to fflt_clz.o(x$fpl$ffltu) for __aeabi_ui2f
    task_dose.o(i.IntDoseCalc) refers to fdiv.o(x$fpl$fdiv) for __aeabi_fdiv
    task_dose.o(i.IntDoseCalc) refers to dose.o(i.CalcDose) for CalcDose
    task_dose.o(i.IntDoseCalc) refers to fmul.o(x$fpl$fmul) for __aeabi_fmul
    task_dose.o(i.IntDoseCalc) refers to faddsub_clz.o(x$fpl$fadd) for __aeabi_fadd
    task_dose.o(i.IntDoseCalc) refers to task_dose.o(.data) for intPulseIndex
    task_dose.o(i.IntDoseCalc) refers to task_dose.o(.bss) for intPulseBuff
    task_dose.o(i.IntDoseCalc) refers to main.o(.data) for pulseCntInt
    task_dose.o(i.Task_dose) refers to bsp_timer.o(i.PulseCntGet) for PulseCntGet
    task_dose.o(i.Task_dose) refers to task_dose.o(i.IntDoseCalc) for IntDoseCalc
    task_dose.o(i.Task_dose) refers to task_dose.o(i.ExtDoseCalc) for ExtDoseCalc
    task_dose.o(i.chn_clac_init) refers to task_dose.o(i.list_init) for list_init
    task_dose.o(i.chn_clac_init) refers to task_dose.o(i.list_refresh) for list_refresh
    task_dose.o(i.chn_clac_init) refers to task_dose.o(.data) for ch_size
    task_dose.o(i.chn_clac_init) refers to task_dose.o(.bss) for list_buff
    task_dose.o(i.get_list_avage) refers to faddsub_clz.o(x$fpl$fadd) for __aeabi_fadd
    task_dose.o(i.get_list_avage) refers to fflt_clz.o(x$fpl$ffltu) for __aeabi_ui2f
    task_dose.o(i.get_list_avage) refers to fdiv.o(x$fpl$fdiv) for __aeabi_fdiv
    task_status.o(i.BeepStateProcess) refers to bsp_key.o(i.KeyGetState) for KeyGetState
    task_status.o(i.BeepStateProcess) refers to main.o(.data) for basicParam
    task_status.o(i.BeepStateProcess) refers to task_status.o(.data) for preLevel
    task_status.o(i.BeepStateProcess) refers to task_status.o(.constdata) for beepOnTickTable
    task_status.o(i.ChgStateProcess) refers to bsp_gpio.o(i.CHG_plugCheck) for CHG_plugCheck
    task_status.o(i.ChgStateProcess) refers to bsp_gpio.o(i.CHG_SetChg) for CHG_SetChg
    task_status.o(i.ChgStateProcess) refers to bsp_adc.o(i.ADC_GetVolPer) for ADC_GetVolPer
    task_status.o(i.ChgStateProcess) refers to bsp_gpio.o(i.CHG_GetChgState) for CHG_GetChgState
    task_status.o(i.ChgStateProcess) refers to task_status.o(.data) for chgState
    task_status.o(i.GetChgState) refers to task_status.o(.data) for chgState
    task_status.o(i.LedStateProcess) refers to task_status.o(i.GetChgState) for GetChgState
    task_status.o(i.LedStateProcess) refers to task_status.o(.data) for step
    task_status.o(i.Task_bat) refers to bsp_adc.o(i.ADC_GetVolPer) for ADC_GetVolPer
    task_status.o(i.Task_bat) refers to task_status.o(.data) for firstIn
    task_status.o(i.Task_bat) refers to main.o(.data) for batVoltPerSmooth
    task_status.o(i.Task_status) refers to fdiv.o(x$fpl$fdiv) for __aeabi_fdiv
    task_status.o(i.Task_status) refers to ffixu.o(x$fpl$ffixu) for __aeabi_f2uiz
    task_status.o(i.Task_status) refers to task_status.o(i.BeepStateProcess) for BeepStateProcess
    task_status.o(i.Task_status) refers to bsp_gpio.o(i.BEEP_SetState) for BEEP_SetState
    task_status.o(i.Task_status) refers to task_status.o(i.LedStateProcess) for LedStateProcess
    task_status.o(i.Task_status) refers to bsp_gpio.o(i.LED_SetState) for LED_SetState
    task_status.o(i.Task_status) refers to task_status.o(i.ChgStateProcess) for ChgStateProcess
    task_status.o(i.Task_status) refers to task_dose.o(.data) for intDoseParam
    task_status.o(i.Task_status) refers to main.o(.data) for warnRangeRate
    task_status.o(i.Task_status) refers to task_status.o(.data) for warnLevel
    task_manage.o(i.SYS_Param_Init) refers to rt_memcpy_w.o(.text) for __aeabi_memcpy4
    task_manage.o(i.SYS_Param_Init) refers to bsp_eeprom.o(i.read_eeprom) for read_eeprom
    task_manage.o(i.SYS_Param_Init) refers to sys.o(i.delay_ms) for delay_ms
    task_manage.o(i.SYS_Param_Init) refers to bsp_eeprom.o(i.write_eeprom) for write_eeprom
    task_manage.o(i.SYS_Param_Init) refers to task_manage.o(.constdata) for .constdata
    task_manage.o(i.SYS_Param_Init) refers to task_dose.o(.bss) for Chn_Data
    task_manage.o(i.SYS_Param_Init) refers to main.o(.data) for basicParam
    task_manage.o(i.SYS_Param_Init) refers to task_dose.o(.data) for intDoseParam
    task_manage.o(i.Task_manage) refers to task_manage.o(i.comUartSetup) for comUartSetup
    task_manage.o(i.Task_manage) refers to task_manage.o(i.eepromDataRefresh) for eepromDataRefresh
    task_manage.o(i.Task_manage) refers to main.o(.data) for detectorType
    task_manage.o(i.comUartSetup) refers to bsp_uart.o(i.Uart3SetBaud) for Uart3SetBaud
    task_manage.o(i.comUartSetup) refers to task_manage.o(.data) for preType
    task_manage.o(i.eepromDataRefresh) refers to bsp_eeprom.o(i.write_eeprom) for write_eeprom
    task_manage.o(i.eepromDataRefresh) refers to task_manage.o(.data) for eepromSetFlag
    task_manage.o(i.eepromDataRefresh) refers to main.o(.data) for basicParam
    task_manage.o(i.eepromDataRefresh) refers to task_dose.o(.data) for intDoseParam
    task_manage.o(i.eepromDataRefresh) refers to task_dose.o(.bss) for Chn_Data
    task_manage.o(i.eepromSetStatus) refers to task_manage.o(.data) for eepromSetFlag
    dose.o(i.CalcDose) refers to dose.o(i.count_data_check) for count_data_check
    dose.o(i.CalcDose) refers to dose.o(i.get_avage_count) for get_avage_count
    dose.o(i.CalcDose) refers to dose.o(i.count_to_rate) for count_to_rate
    dose.o(i.CalcDose) refers to dose.o(.data) for Count_No_Sign
    dose.o(i.CalcDose) refers to dose.o(.bss) for Slide_Buff
    dose.o(i.Dose_Init) refers to dose.o(.bss) for Fast_Slide_Buff
    dose.o(i.Dose_Init) refers to dose.o(.data) for Cps_Avage
    dose.o(i.Get_ins_cps) refers to dose.o(i.get_avage_count) for get_avage_count
    dose.o(i.Get_ins_cps) refers to dose.o(.bss) for Fast_Slide_Buff
    dose.o(i.add_buff_count) refers to dose.o(.bss) for Slide_Buff
    dose.o(i.add_buff_count) refers to dose.o(.data) for Count_Slide
    dose.o(i.add_fast_buff_count) refers to dose.o(.bss) for Fast_Slide_Buff
    dose.o(i.add_fast_buff_count) refers to dose.o(.data) for Count_Fast
    dose.o(i.count_data_check) refers to fflt_clz.o(x$fpl$ffltu) for __aeabi_ui2f
    dose.o(i.count_data_check) refers to fdiv.o(x$fpl$fdiv) for __aeabi_fdiv
    dose.o(i.count_data_check) refers to dose.o(i.add_fast_buff_count) for add_fast_buff_count
    dose.o(i.count_data_check) refers to dose.o(i.get_avage_count) for get_avage_count
    dose.o(i.count_data_check) refers to f2d.o(x$fpl$f2d) for __aeabi_f2d
    dose.o(i.count_data_check) refers to dmul.o(x$fpl$dmul) for __aeabi_dmul
    dose.o(i.count_data_check) refers to drleqf.o(x$fpl$drleqf) for __aeabi_cdrcmple
    dose.o(i.count_data_check) refers to frleqf.o(x$fpl$frleqf) for __aeabi_cfrcmple
    dose.o(i.count_data_check) refers to dose.o(i.add_buff_count) for add_buff_count
    dose.o(i.count_data_check) refers to dleqf.o(x$fpl$dleqf) for __aeabi_cdcmple
    dose.o(i.count_data_check) refers to dose.o(.data) for Count_No_Sign
    dose.o(i.count_data_check) refers to dose.o(.bss) for Fast_Slide_Buff
    dose.o(i.count_to_rate) refers to fmul.o(x$fpl$fmul) for __aeabi_fmul
    dose.o(i.count_to_rate) refers to fleqf.o(x$fpl$fleqf) for __aeabi_cfcmple
    dose.o(i.count_to_rate) refers to faddsub_clz.o(x$fpl$fsub) for __aeabi_fsub
    dose.o(i.count_to_rate) refers to fdiv.o(x$fpl$fdiv) for __aeabi_fdiv
    dose.o(i.count_to_rate) refers to task_dose.o(.data) for intDoseParam
    dose.o(i.get_avage_count) refers to faddsub_clz.o(x$fpl$fadd) for __aeabi_fadd
    dose.o(i.get_avage_count) refers to feqf.o(x$fpl$feqf) for __aeabi_cfcmpeq
    dose.o(i.get_avage_count) refers to fflt_clz.o(x$fpl$ffltu) for __aeabi_ui2f
    dose.o(i.get_avage_count) refers to fdiv.o(x$fpl$fdiv) for __aeabi_fdiv
    gui.o(i.GUI_Refresh) refers to bsp_lcd.o(i.LCD_FillData) for LCD_FillData
    gui.o(i.GUI_Refresh) refers to rt_memclr.o(.text) for __aeabi_memclr
    gui.o(i.GUI_Refresh) refers to gui.o(.bss) for ramBuf
    gui.o(i.GUI_SetBat) refers to rt_memcpy_v6.o(.text) for __aeabi_memcpy
    gui.o(i.GUI_SetBat) refers to gui.o(.bss) for ramBuf
    gui.o(i.GUI_SetBat) refers to gui.o(.constdata) for batpic
    gui.o(i.GUI_SetChar1608) refers to gui.o(.bss) for ramBuf
    gui.o(i.GUI_SetChar1608) refers to gui.o(.constdata) for ascii1608
    gui.o(i.GUI_SetChar1616) refers to gui.o(i.HZ16_to_index) for HZ16_to_index
    gui.o(i.GUI_SetChar1616) refers to gui.o(.constdata) for hanzi16
    gui.o(i.GUI_SetChar1616) refers to gui.o(.bss) for ramBuf
    gui.o(i.GUI_SetChar2412) refers to gui.o(.bss) for ramBuf
    gui.o(i.GUI_SetChar2412) refers to gui.o(.constdata) for ascii2412
    gui.o(i.GUI_SetChar2424) refers to gui.o(i.HZ24_to_index) for HZ24_to_index
    gui.o(i.GUI_SetChar2424) refers to gui.o(.constdata) for hanzi24
    gui.o(i.GUI_SetChar2424) refers to gui.o(.bss) for ramBuf
    gui.o(i.GUI_SetChar3216) refers to gui.o(.bss) for ramBuf
    gui.o(i.GUI_SetChar3216) refers to gui.o(.constdata) for ascii3216
    gui.o(i.GUI_SetChar4824) refers to gui.o(.bss) for ramBuf
    gui.o(i.GUI_SetChar4824) refers to gui.o(.constdata) for ascii4824
    gui.o(i.GUI_SetChar5628) refers to gui.o(.bss) for ramBuf
    gui.o(i.GUI_SetChar5628) refers to gui.o(.constdata) for ascii5628
    gui.o(i.GUI_SetChgPic) refers to rt_memcpy_v6.o(.text) for __aeabi_memcpy
    gui.o(i.GUI_SetChgPic) refers to gui.o(.constdata) for chargePic
    gui.o(i.GUI_SetChgPic) refers to gui.o(.bss) for ramBuf
    gui.o(i.GUI_SetFillRect) refers to gui.o(i.GUI_SetLine) for GUI_SetLine
    gui.o(i.GUI_SetLine) refers to gui.o(.bss) for ramBuf
    gui.o(i.GUI_SetPixel) refers to gui.o(.bss) for ramBuf
    gui.o(i.GUI_SetRect) refers to gui.o(i.GUI_SetLine) for GUI_SetLine
    gui.o(i.GUI_SetString1608) refers to gui.o(i.GUI_SetChar1608) for GUI_SetChar1608
    gui.o(i.GUI_SetString1616) refers to gui.o(i.GUI_SetChar1608) for GUI_SetChar1608
    gui.o(i.GUI_SetString1616) refers to gui.o(i.GUI_SetChar1616) for GUI_SetChar1616
    gui.o(i.GUI_SetString2412) refers to gui.o(i.GUI_SetChar2412) for GUI_SetChar2412
    gui.o(i.GUI_SetString2424) refers to gui.o(i.GUI_SetChar2412) for GUI_SetChar2412
    gui.o(i.GUI_SetString2424) refers to gui.o(i.GUI_SetChar2424) for GUI_SetChar2424
    gui.o(i.GUI_SetString3216) refers to gui.o(i.GUI_SetChar3216) for GUI_SetChar3216
    gui.o(i.GUI_SetString4824) refers to gui.o(i.GUI_SetChar4824) for GUI_SetChar4824
    gui.o(i.GUI_SetString5628) refers to gui.o(i.GUI_SetChar5628) for GUI_SetChar5628
    display.o(i.Display_CNT) refers to _printf_percent.o(.ARM.Collect$$_printf_percent$$00000000) for _printf_percent
    display.o(i.Display_CNT) refers to _printf_d.o(.ARM.Collect$$_printf_percent$$00000009) for _printf_d
    display.o(i.Display_CNT) refers to _printf_dec.o(.text) for _printf_int_dec
    display.o(i.Display_CNT) refers to rt_memclr_w.o(.text) for __aeabi_memclr4
    display.o(i.Display_CNT) refers to noretval__2sprintf.o(.text) for __2sprintf
    display.o(i.Display_CNT) refers to gui.o(i.GUI_SetString4824) for GUI_SetString4824
    display.o(i.Display_Chg) refers to bsp_gpio.o(i.CHG_plugCheck) for CHG_plugCheck
    display.o(i.Display_Chg) refers to gui.o(i.GUI_SetChgPic) for GUI_SetChgPic
    display.o(i.Display_ProgressBar) refers to gui.o(i.GUI_SetFillRect) for GUI_SetFillRect
    display.o(i.Display_ProgressBar) refers to gui.o(i.GUI_SetRect) for GUI_SetRect
    display.o(i.Display_ProgressBar) refers to gui.o(i.GUI_SetString1608) for GUI_SetString1608
    display.o(i.Display_bat) refers to bsp_gpio.o(i.CHG_plugCheck) for CHG_plugCheck
    display.o(i.Display_bat) refers to gui.o(i.GUI_SetBat) for GUI_SetBat
    display.o(i.Display_bat) refers to main.o(.data) for batVoltPerSmooth
    display.o(i.Display_brightness) refers to _printf_percent.o(.ARM.Collect$$_printf_percent$$00000000) for _printf_percent
    display.o(i.Display_brightness) refers to _printf_d.o(.ARM.Collect$$_printf_percent$$00000009) for _printf_d
    display.o(i.Display_brightness) refers to _printf_dec.o(.text) for _printf_int_dec
    display.o(i.Display_brightness) refers to gui.o(i.GUI_SetRect) for GUI_SetRect
    display.o(i.Display_brightness) refers to gui.o(i.GUI_SetLine) for GUI_SetLine
    display.o(i.Display_brightness) refers to noretval__2sprintf.o(.text) for __2sprintf
    display.o(i.Display_brightness) refers to gui.o(i.GUI_SetString2412) for GUI_SetString2412
    display.o(i.Display_dose) refers to _printf_pad.o(.text) for _printf_pre_padding
    display.o(i.Display_dose) refers to _printf_percent.o(.ARM.Collect$$_printf_percent$$00000000) for _printf_percent
    display.o(i.Display_dose) refers to _printf_f.o(.ARM.Collect$$_printf_percent$$00000003) for _printf_f
    display.o(i.Display_dose) refers to printf1.o(x$fpl$printf1) for _printf_fp_dec
    display.o(i.Display_dose) refers to frleqf.o(x$fpl$frleqf) for __aeabi_cfrcmple
    display.o(i.Display_dose) refers to fdiv.o(x$fpl$fdiv) for __aeabi_fdiv
    display.o(i.Display_dose) refers to f2d.o(x$fpl$f2d) for __aeabi_f2d
    display.o(i.Display_dose) refers to noretval__2sprintf.o(.text) for __2sprintf
    display.o(i.Display_dose) refers to strlen.o(.text) for strlen
    display.o(i.Display_dose) refers to gui.o(i.GUI_SetString2412) for GUI_SetString2412
    display.o(i.Display_doseVal) refers to _printf_pad.o(.text) for _printf_pre_padding
    display.o(i.Display_doseVal) refers to _printf_percent.o(.ARM.Collect$$_printf_percent$$00000000) for _printf_percent
    display.o(i.Display_doseVal) refers to _printf_d.o(.ARM.Collect$$_printf_percent$$00000009) for _printf_d
    display.o(i.Display_doseVal) refers to _printf_dec.o(.text) for _printf_int_dec
    display.o(i.Display_doseVal) refers to frleqf.o(x$fpl$frleqf) for __aeabi_cfrcmple
    display.o(i.Display_doseVal) refers to fdiv.o(x$fpl$fdiv) for __aeabi_fdiv
    display.o(i.Display_doseVal) refers to fmul.o(x$fpl$fmul) for __aeabi_fmul
    display.o(i.Display_doseVal) refers to ffixu.o(x$fpl$ffixu) for __aeabi_f2uiz
    display.o(i.Display_doseVal) refers to gui.o(i.GUI_SetString2412) for GUI_SetString2412
    display.o(i.Display_doseVal) refers to noretval__2sprintf.o(.text) for __2sprintf
    display.o(i.Display_doseVal) refers to gui.o(i.GUI_SetString4824) for GUI_SetString4824
    display.o(i.Display_doseVal) refers to gui.o(i.GUI_SetChar2412) for GUI_SetChar2412
    display.o(i.Display_scaleBar) refers to gui.o(i.GUI_SetLine) for GUI_SetLine
    display.o(i.Display_scaleBar) refers to gui.o(i.GUI_SetString1608) for GUI_SetString1608
    display.o(i.Display_scaleBar) refers to gui.o(i.GUI_SetFillRect) for GUI_SetFillRect
    display.o(i.Display_setDeadtime) refers to gui.o(i.GUI_SetChar4824) for GUI_SetChar4824
    display.o(i.Display_setDeadtime) refers to gui.o(i.GUI_SetChar2412) for GUI_SetChar2412
    display.o(i.Display_setDtFactor) refers to gui.o(i.GUI_SetChar4824) for GUI_SetChar4824
    display.o(i.Display_setDtFactor) refers to gui.o(i.GUI_SetChar2412) for GUI_SetChar2412
    display.o(i.Display_setFactor) refers to gui.o(i.GUI_SetChar4824) for GUI_SetChar4824
    display.o(i.Display_setFactor) refers to gui.o(i.GUI_SetChar2412) for GUI_SetChar2412
    display.o(i.Display_setWarnVal) refers to gui.o(i.GUI_SetChar4824) for GUI_SetChar4824
    display.o(i.Display_setWarnVal) refers to gui.o(i.GUI_SetChar2412) for GUI_SetChar2412
    display.o(i.Display_setWarnVal) refers to gui.o(i.GUI_SetString3216) for GUI_SetString3216
    display.o(i.Display_statusBar) refers to _printf_pad.o(.text) for _printf_pre_padding
    display.o(i.Display_statusBar) refers to _printf_percent.o(.ARM.Collect$$_printf_percent$$00000000) for _printf_percent
    display.o(i.Display_statusBar) refers to _printf_d.o(.ARM.Collect$$_printf_percent$$00000009) for _printf_d
    display.o(i.Display_statusBar) refers to _printf_dec.o(.text) for _printf_int_dec
    display.o(i.Display_statusBar) refers to display.o(i.Display_bat) for Display_bat
    display.o(i.Display_statusBar) refers to bsp_rtc.o(i.Get_RTC_Time) for Get_RTC_Time
    display.o(i.Display_statusBar) refers to noretval__2sprintf.o(.text) for __2sprintf
    display.o(i.Display_statusBar) refers to gui.o(i.GUI_SetString1608) for GUI_SetString1608
    display.o(i.Display_unitParam) refers to gui.o(i.GUI_SetString2412) for GUI_SetString2412
    display.o(i.GetDoseUnit) refers to frleqf.o(x$fpl$frleqf) for __aeabi_cfrcmple
    display.o(i.display_time) refers to _printf_pad.o(.text) for _printf_pre_padding
    display.o(i.display_time) refers to _printf_percent.o(.ARM.Collect$$_printf_percent$$00000000) for _printf_percent
    display.o(i.display_time) refers to _printf_d.o(.ARM.Collect$$_printf_percent$$00000009) for _printf_d
    display.o(i.display_time) refers to _printf_dec.o(.text) for _printf_int_dec
    display.o(i.display_time) refers to bsp_rtc.o(i.Get_RTC_Time) for Get_RTC_Time
    display.o(i.display_time) refers to noretval__2sprintf.o(.text) for __2sprintf
    display.o(i.display_time) refers to gui.o(i.GUI_SetString1608) for GUI_SetString1608
    __2sprintf.o(.text) refers to _printf_char_common.o(.text) for _printf_char_common
    __2sprintf.o(.text) refers to _sputc.o(.text) for _sputc
    noretval__2sprintf.o(.text) refers to _printf_char_common.o(.text) for _printf_char_common
    noretval__2sprintf.o(.text) refers to _sputc.o(.text) for _sputc
    __printf.o(.text) refers to _printf_percent.o(.ARM.Collect$$_printf_percent$$00000000) for _printf_percent
    _printf_dec.o(.text) refers to _printf_intcommon.o(.text) for _printf_int_common
    __printf_flags.o(.text) refers to _printf_percent.o(.ARM.Collect$$_printf_percent$$00000000) for _printf_percent
    __printf_flags.o(.text) refers to __printf_flags.o(.constdata) for .constdata
    __printf_ss.o(.text) refers to _printf_percent.o(.ARM.Collect$$_printf_percent$$00000000) for _printf_percent
    __printf_flags_ss.o(.text) refers to _printf_percent.o(.ARM.Collect$$_printf_percent$$00000000) for _printf_percent
    __printf_flags_ss.o(.text) refers to __printf_flags_ss.o(.constdata) for .constdata
    __printf_wp.o(.text) refers to __printf_wp.o(i._is_digit) for _is_digit
    __printf_wp.o(.text) refers to _printf_percent.o(.ARM.Collect$$_printf_percent$$00000000) for _printf_percent
    __printf_flags_wp.o(.text) refers to __printf_wp.o(i._is_digit) for _is_digit
    __printf_flags_wp.o(.text) refers to _printf_percent.o(.ARM.Collect$$_printf_percent$$00000000) for _printf_percent
    __printf_flags_wp.o(.text) refers to __printf_flags_wp.o(.constdata) for .constdata
    __printf_ss_wp.o(.text) refers to __printf_wp.o(i._is_digit) for _is_digit
    __printf_ss_wp.o(.text) refers to _printf_percent.o(.ARM.Collect$$_printf_percent$$00000000) for _printf_percent
    __printf_flags_ss_wp.o(.text) refers to __printf_wp.o(i._is_digit) for _is_digit
    __printf_flags_ss_wp.o(.text) refers to _printf_percent.o(.ARM.Collect$$_printf_percent$$00000000) for _printf_percent
    __printf_flags_ss_wp.o(.text) refers to __printf_flags_ss_wp.o(.constdata) for .constdata
    _printf_d.o(.ARM.Collect$$_printf_percent$$00000009) refers (Weak) to _printf_dec.o(.text) for _printf_int_dec
    _printf_f.o(.ARM.Collect$$_printf_percent$$00000003) refers (Weak) to printf1.o(x$fpl$printf1) for _printf_fp_dec
    _printf_percent.o(.ARM.Collect$$_printf_percent$$00000000) refers (Special) to _printf_percent_end.o(.ARM.Collect$$_printf_percent$$00000017) for _printf_percent_end
    __0sscanf.o(.text) refers to scanf_char.o(.text) for __vfscanf_char
    __0sscanf.o(.text) refers to _sgetc.o(.text) for _sgetc
    rt_memcpy_v6.o(.text) refers to rt_memcpy_w.o(.text) for __aeabi_memcpy4
    rt_memclr.o(.text) refers to rt_memclr_w.o(.text) for _memset_w
    __main.o(!!!main) refers to __rtentry.o(.ARM.Collect$$rtentry$$00000000) for __rt_entry
    d2f.o(x$fpl$d2f) refers (Special) to usenofp.o(x$fpl$usenofp) for __I$use$fp
    d2f.o(x$fpl$d2f) refers to fretinf.o(x$fpl$fretinf) for __fpl_fretinf
    d2f.o(x$fpl$d2f) refers to dnaninf.o(x$fpl$dnaninf) for __fpl_dnaninf
    daddsub_clz.o(x$fpl$dadd) refers (Special) to usenofp.o(x$fpl$usenofp) for __I$use$fp
    daddsub_clz.o(x$fpl$dadd) refers to daddsub_clz.o(x$fpl$dsub) for _dsub1
    daddsub_clz.o(x$fpl$dadd) refers to dretinf.o(x$fpl$dretinf) for __fpl_dretinf
    daddsub_clz.o(x$fpl$dadd) refers to dnaninf.o(x$fpl$dnaninf) for __fpl_dnaninf
    daddsub_clz.o(x$fpl$drsb) refers (Special) to usenofp.o(x$fpl$usenofp) for __I$use$fp
    daddsub_clz.o(x$fpl$drsb) refers to daddsub_clz.o(x$fpl$dadd) for _dadd1
    daddsub_clz.o(x$fpl$drsb) refers to daddsub_clz.o(x$fpl$dsub) for _dsub1
    daddsub_clz.o(x$fpl$dsub) refers (Special) to usenofp.o(x$fpl$usenofp) for __I$use$fp
    daddsub_clz.o(x$fpl$dsub) refers to daddsub_clz.o(x$fpl$dadd) for _dadd1
    daddsub_clz.o(x$fpl$dsub) refers to dnaninf.o(x$fpl$dnaninf) for __fpl_dnaninf
    ddiv.o(x$fpl$drdiv) refers (Special) to usenofp.o(x$fpl$usenofp) for __I$use$fp
    ddiv.o(x$fpl$drdiv) refers to ddiv.o(x$fpl$ddiv) for ddiv_entry
    ddiv.o(x$fpl$ddiv) refers (Special) to usenofp.o(x$fpl$usenofp) for __I$use$fp
    ddiv.o(x$fpl$ddiv) refers to dretinf.o(x$fpl$dretinf) for __fpl_dretinf
    ddiv.o(x$fpl$ddiv) refers to dnaninf.o(x$fpl$dnaninf) for __fpl_dnaninf
    dfixu.o(x$fpl$dfixu) refers (Special) to usenofp.o(x$fpl$usenofp) for __I$use$fp
    dfixu.o(x$fpl$dfixu) refers to dnaninf.o(x$fpl$dnaninf) for __fpl_dnaninf
    dfixu.o(x$fpl$dfixur) refers (Special) to usenofp.o(x$fpl$usenofp) for __I$use$fp
    dfixu.o(x$fpl$dfixur) refers to dnaninf.o(x$fpl$dnaninf) for __fpl_dnaninf
    dflt_clz.o(x$fpl$dfltu) refers (Special) to usenofp.o(x$fpl$usenofp) for __I$use$fp
    dflt_clz.o(x$fpl$dflt) refers (Special) to usenofp.o(x$fpl$usenofp) for __I$use$fp
    dflt_clz.o(x$fpl$dfltn) refers (Special) to usenofp.o(x$fpl$usenofp) for __I$use$fp
    dleqf.o(x$fpl$dleqf) refers (Special) to usenofp.o(x$fpl$usenofp) for __I$use$fp
    dleqf.o(x$fpl$dleqf) refers to dnaninf.o(x$fpl$dnaninf) for __fpl_dnaninf
    dleqf.o(x$fpl$dleqf) refers to dcmpi.o(x$fpl$dcmpinf) for __fpl_dcmp_Inf
    dmul.o(x$fpl$dmul) refers (Special) to usenofp.o(x$fpl$usenofp) for __I$use$fp
    dmul.o(x$fpl$dmul) refers to dretinf.o(x$fpl$dretinf) for __fpl_dretinf
    dmul.o(x$fpl$dmul) refers to dnaninf.o(x$fpl$dnaninf) for __fpl_dnaninf
    drleqf.o(x$fpl$drleqf) refers (Special) to usenofp.o(x$fpl$usenofp) for __I$use$fp
    drleqf.o(x$fpl$drleqf) refers to dleqf.o(x$fpl$dleqf) for __fpl_dcmple_InfNaN
    f2d.o(x$fpl$f2d) refers (Special) to usenofp.o(x$fpl$usenofp) for __I$use$fp
    f2d.o(x$fpl$f2d) refers to fnaninf.o(x$fpl$fnaninf) for __fpl_fnaninf
    f2d.o(x$fpl$f2d) refers to dretinf.o(x$fpl$dretinf) for __fpl_dretinf
    faddsub_clz.o(x$fpl$fadd) refers (Special) to usenofp.o(x$fpl$usenofp) for __I$use$fp
    faddsub_clz.o(x$fpl$fadd) refers to faddsub_clz.o(x$fpl$fsub) for _fsub1
    faddsub_clz.o(x$fpl$fadd) refers to fretinf.o(x$fpl$fretinf) for __fpl_fretinf
    faddsub_clz.o(x$fpl$fadd) refers to fnaninf.o(x$fpl$fnaninf) for __fpl_fnaninf
    faddsub_clz.o(x$fpl$frsb) refers (Special) to usenofp.o(x$fpl$usenofp) for __I$use$fp
    faddsub_clz.o(x$fpl$frsb) refers to faddsub_clz.o(x$fpl$fadd) for _fadd1
    faddsub_clz.o(x$fpl$frsb) refers to faddsub_clz.o(x$fpl$fsub) for _fsub1
    faddsub_clz.o(x$fpl$fsub) refers (Special) to usenofp.o(x$fpl$usenofp) for __I$use$fp
    faddsub_clz.o(x$fpl$fsub) refers to faddsub_clz.o(x$fpl$fadd) for _fadd1
    faddsub_clz.o(x$fpl$fsub) refers to fnaninf.o(x$fpl$fnaninf) for __fpl_fnaninf
    fdiv.o(x$fpl$frdiv) refers (Special) to usenofp.o(x$fpl$usenofp) for __I$use$fp
    fdiv.o(x$fpl$frdiv) refers to fdiv.o(x$fpl$fdiv) for _fdiv1
    fdiv.o(x$fpl$fdiv) refers (Special) to usenofp.o(x$fpl$usenofp) for __I$use$fp
    fdiv.o(x$fpl$fdiv) refers to fretinf.o(x$fpl$fretinf) for __fpl_fretinf
    fdiv.o(x$fpl$fdiv) refers to fnaninf.o(x$fpl$fnaninf) for __fpl_fnaninf
    feqf.o(x$fpl$feqf) refers (Special) to usenofp.o(x$fpl$usenofp) for __I$use$fp
    feqf.o(x$fpl$feqf) refers to fnaninf.o(x$fpl$fnaninf) for __fpl_fnaninf
    feqf.o(x$fpl$feqf) refers to fcmpi.o(x$fpl$fcmpinf) for __fpl_fcmp_Inf
    ffixu.o(x$fpl$ffixu) refers (Special) to usenofp.o(x$fpl$usenofp) for __I$use$fp
    ffixu.o(x$fpl$ffixu) refers to fnaninf.o(x$fpl$fnaninf) for __fpl_fnaninf
    ffixu.o(x$fpl$ffixur) refers (Special) to usenofp.o(x$fpl$usenofp) for __I$use$fp
    ffixu.o(x$fpl$ffixur) refers to fnaninf.o(x$fpl$fnaninf) for __fpl_fnaninf
    fflt_clz.o(x$fpl$ffltu) refers (Special) to usenofp.o(x$fpl$usenofp) for __I$use$fp
    fflt_clz.o(x$fpl$fflt) refers (Special) to usenofp.o(x$fpl$usenofp) for __I$use$fp
    fflt_clz.o(x$fpl$ffltn) refers (Special) to usenofp.o(x$fpl$usenofp) for __I$use$fp
    fleqf.o(x$fpl$fleqf) refers (Special) to usenofp.o(x$fpl$usenofp) for __I$use$fp
    fleqf.o(x$fpl$fleqf) refers to fnaninf.o(x$fpl$fnaninf) for __fpl_fnaninf
    fleqf.o(x$fpl$fleqf) refers to fcmpi.o(x$fpl$fcmpinf) for __fpl_fcmp_Inf
    fmul.o(x$fpl$fmul) refers (Special) to usenofp.o(x$fpl$usenofp) for __I$use$fp
    fmul.o(x$fpl$fmul) refers to fretinf.o(x$fpl$fretinf) for __fpl_fretinf
    fmul.o(x$fpl$fmul) refers to fnaninf.o(x$fpl$fnaninf) for __fpl_fnaninf
    frleqf.o(x$fpl$frleqf) refers (Special) to usenofp.o(x$fpl$usenofp) for __I$use$fp
    frleqf.o(x$fpl$frleqf) refers to fleqf.o(x$fpl$fleqf) for __fpl_fcmple_InfNaN
    printf1.o(x$fpl$printf1) refers to _printf_fp_dec.o(.text) for _printf_fp_dec_real
    scanf1.o(x$fpl$scanf1) refers to scanf_fp.o(.text) for _scanf_really_real
    __rtentry.o(.ARM.Collect$$rtentry$$00000000) refers (Special) to __rtentry2.o(.ARM.Collect$$rtentry$$0000000A) for __rt_entry_li
    __rtentry.o(.ARM.Collect$$rtentry$$00000000) refers (Special) to __rtentry2.o(.ARM.Collect$$rtentry$$0000000D) for __rt_entry_main
    __rtentry.o(.ARM.Collect$$rtentry$$00000000) refers (Special) to __rtentry2.o(.ARM.Collect$$rtentry$$0000000C) for __rt_entry_postli_1
    __rtentry.o(.ARM.Collect$$rtentry$$00000000) refers (Special) to __rtentry2.o(.ARM.Collect$$rtentry$$00000009) for __rt_entry_postsh_1
    __rtentry.o(.ARM.Collect$$rtentry$$00000000) refers (Special) to __rtentry2.o(.ARM.Collect$$rtentry$$00000002) for __rt_entry_presh_1
    __rtentry.o(.ARM.Collect$$rtentry$$00000000) refers (Special) to __rtentry4.o(.ARM.Collect$$rtentry$$00000004) for __rt_entry_sh
    _printf_intcommon.o(.text) refers (Weak) to _printf_pad.o(.text) for _printf_pre_padding
    _printf_intcommon.o(.text) refers (Weak) to _printf_pad.o(.text) for _printf_pre_padding
    _printf_intcommon.o(.text) refers (Weak) to _printf_pad.o(.text) for _printf_post_padding
    _printf_fp_dec.o(.text) refers (Special) to usenofp.o(x$fpl$usenofp) for __I$use$fp
    _printf_fp_dec.o(.text) refers (Special) to lc_numeric_c.o(locale$$code) for _get_lc_numeric
    _printf_fp_dec.o(.text) refers to bigflt0.o(.text) for _btod_etento
    _printf_fp_dec.o(.text) refers to btod.o(CL$$btod_d2e) for _btod_d2e
    _printf_fp_dec.o(.text) refers to btod.o(CL$$btod_ediv) for _btod_ediv
    _printf_fp_dec.o(.text) refers to btod.o(CL$$btod_emul) for _btod_emul
    _printf_fp_dec.o(.text) refers to lludiv10.o(.text) for _ll_udiv10
    _printf_fp_dec.o(.text) refers to fpclassify.o(i.__ARM_fpclassify) for __ARM_fpclassify
    _printf_fp_dec.o(.text) refers to _printf_fp_infnan.o(.text) for _printf_fp_infnan
    _printf_fp_dec.o(.text) refers (Weak) to _printf_pad.o(.text) for _printf_pre_padding
    _printf_fp_dec.o(.text) refers (Weak) to _printf_pad.o(.text) for _printf_pre_padding
    _printf_fp_dec.o(.text) refers to rt_locale_intlibspace.o(.text) for __rt_locale
    _printf_fp_dec.o(.text) refers (Weak) to _printf_pad.o(.text) for _printf_post_padding
    _printf_char_common.o(.text) refers to __printf_flags_wp.o(.text) for __printf
    scanf_fp.o(.text) refers (Special) to usenofp.o(x$fpl$usenofp) for __I$use$fp
    scanf_fp.o(.text) refers (Special) to lc_numeric_c.o(locale$$code) for _get_lc_numeric
    scanf_fp.o(.text) refers to rt_errno_addr_intlibspace.o(.text) for __aeabi_errno_addr
    scanf_fp.o(.text) refers to istatus.o(x$fpl$ieeestatus) for __ieee_status
    scanf_fp.o(.text) refers to bigflt0.o(.text) for _btod_etento
    scanf_fp.o(.text) refers to btod.o(CL$$btod_emuld) for _btod_emuld
    scanf_fp.o(.text) refers to btod.o(CL$$btod_edivd) for _btod_edivd
    scanf_fp.o(.text) refers to rt_locale_intlibspace.o(.text) for __rt_locale
    scanf_fp.o(.text) refers to scanf2.o(x$fpl$scanf2) for _scanf_infnan
    scanf_fp.o(.text) refers to __printf_wp.o(i._is_digit) for _is_digit
    scanf_fp.o(.text) refers to fpconst.o(c$$dmax) for __dbl_max
    scanf_fp.o(.text) refers to fpconst.o(c$$dinf) for __huge_val
    scanf_fp.o(.text) refers to narrow.o(i.__mathlib_narrow) for __mathlib_narrow
    scanf_char.o(.text) refers to _scanf.o(.text) for __vfscanf
    scanf_char.o(.text) refers to isspace.o(.text) for isspace
    dcmpi.o(x$fpl$dcmpinf) refers (Special) to usenofp.o(x$fpl$usenofp) for __I$use$fp
    dnaninf.o(x$fpl$dnaninf) refers (Special) to usenofp.o(x$fpl$usenofp) for __I$use$fp
    dretinf.o(x$fpl$dretinf) refers (Special) to usenofp.o(x$fpl$usenofp) for __I$use$fp
    fcmpi.o(x$fpl$fcmpinf) refers (Special) to usenofp.o(x$fpl$usenofp) for __I$use$fp
    fnaninf.o(x$fpl$fnaninf) refers (Special) to usenofp.o(x$fpl$usenofp) for __I$use$fp
    fretinf.o(x$fpl$fretinf) refers (Special) to usenofp.o(x$fpl$usenofp) for __I$use$fp
    __rtentry2.o(.ARM.Collect$$rtentry$$00000008) refers to boardinit2.o(.text) for _platform_post_stackheap_init
    __rtentry2.o(.ARM.Collect$$rtentry$$0000000A) refers to libinit.o(.ARM.Collect$$libinit$$00000000) for __rt_lib_init
    __rtentry2.o(.ARM.Collect$$rtentry$$0000000B) refers to boardinit3.o(.text) for _platform_post_lib_init
    __rtentry2.o(.ARM.Collect$$rtentry$$0000000D) refers to main.o(i.main) for main
    __rtentry2.o(.ARM.Collect$$rtentry$$0000000D) refers to exit.o(.text) for exit
    __rtentry2.o(.ARM.exidx) refers to __rtentry2.o(.ARM.Collect$$rtentry$$00000001) for .ARM.Collect$$rtentry$$00000001
    __rtentry2.o(.ARM.exidx) refers to __rtentry2.o(.ARM.Collect$$rtentry$$00000008) for .ARM.Collect$$rtentry$$00000008
    __rtentry2.o(.ARM.exidx) refers to __rtentry2.o(.ARM.Collect$$rtentry$$0000000A) for .ARM.Collect$$rtentry$$0000000A
    __rtentry2.o(.ARM.exidx) refers to __rtentry2.o(.ARM.Collect$$rtentry$$0000000B) for .ARM.Collect$$rtentry$$0000000B
    __rtentry2.o(.ARM.exidx) refers to __rtentry2.o(.ARM.Collect$$rtentry$$0000000D) for .ARM.Collect$$rtentry$$0000000D
    __rtentry4.o(.ARM.Collect$$rtentry$$00000004) refers to sys_stackheap_outer.o(.text) for __user_setup_stackheap
    __rtentry4.o(.ARM.exidx) refers to __rtentry4.o(.ARM.Collect$$rtentry$$00000004) for .ARM.Collect$$rtentry$$00000004
    rt_locale.o(.text) refers to rt_locale.o(.bss) for __rt_locale_data
    rt_locale_intlibspace.o(.text) refers to libspace.o(.bss) for __libspace_start
    rt_errno_addr.o(.text) refers to rt_errno_addr.o(.bss) for __aeabi_errno_addr_data
    rt_errno_addr_intlibspace.o(.text) refers to libspace.o(.bss) for __libspace_start
    isspace.o(.text) refers to rt_ctype_table.o(.text) for __rt_ctype_table
    _printf_fp_infnan.o(.text) refers (Weak) to _printf_pad.o(.text) for _printf_pre_padding
    _printf_fp_infnan.o(.text) refers (Weak) to _printf_pad.o(.text) for _printf_post_padding
    _scanf.o(.text) refers (Weak) to scanf1.o(x$fpl$scanf1) for _scanf_real
    bigflt0.o(.text) refers (Special) to usenofp.o(x$fpl$usenofp) for __I$use$fp
    bigflt0.o(.text) refers to btod.o(CL$$btod_emul) for _btod_emul
    bigflt0.o(.text) refers to btod.o(CL$$btod_ediv) for _btod_ediv
    bigflt0.o(.text) refers to bigflt0.o(.constdata) for .constdata
    bigflt0.o(.constdata) refers (Special) to usenofp.o(x$fpl$usenofp) for __I$use$fp
    btod.o(CL$$btod_d2e) refers (Special) to usenofp.o(x$fpl$usenofp) for __I$use$fp
    btod.o(CL$$btod_d2e) refers to btod.o(CL$$btod_d2e_norm_op1) for _d2e_norm_op1
    btod.o(CL$$btod_d2e_norm_op1) refers (Special) to usenofp.o(x$fpl$usenofp) for __I$use$fp
    btod.o(CL$$btod_d2e_norm_op1) refers to btod.o(CL$$btod_d2e_denorm_low) for _d2e_denorm_low
    btod.o(CL$$btod_d2e_denorm_low) refers (Special) to usenofp.o(x$fpl$usenofp) for __I$use$fp
    btod.o(CL$$btod_emul) refers (Special) to usenofp.o(x$fpl$usenofp) for __I$use$fp
    btod.o(CL$$btod_emul) refers to btod.o(CL$$btod_mult_common) for __btod_mult_common
    btod.o(CL$$btod_emul) refers to btod.o(CL$$btod_e2e) for _e2e
    btod.o(CL$$btod_ediv) refers (Special) to usenofp.o(x$fpl$usenofp) for __I$use$fp
    btod.o(CL$$btod_ediv) refers to btod.o(CL$$btod_div_common) for __btod_div_common
    btod.o(CL$$btod_ediv) refers to btod.o(CL$$btod_e2e) for _e2e
    btod.o(CL$$btod_emuld) refers (Special) to usenofp.o(x$fpl$usenofp) for __I$use$fp
    btod.o(CL$$btod_emuld) refers to btod.o(CL$$btod_mult_common) for __btod_mult_common
    btod.o(CL$$btod_emuld) refers to btod.o(CL$$btod_e2d) for _e2d
    btod.o(CL$$btod_edivd) refers (Special) to usenofp.o(x$fpl$usenofp) for __I$use$fp
    btod.o(CL$$btod_edivd) refers to btod.o(CL$$btod_div_common) for __btod_div_common
    btod.o(CL$$btod_edivd) refers to btod.o(CL$$btod_e2d) for _e2d
    btod.o(CL$$btod_e2e) refers (Special) to usenofp.o(x$fpl$usenofp) for __I$use$fp
    btod.o(CL$$btod_e2d) refers (Special) to usenofp.o(x$fpl$usenofp) for __I$use$fp
    btod.o(CL$$btod_e2d) refers to btod.o(CL$$btod_e2e) for _e2e
    btod.o(CL$$btod_mult_common) refers (Special) to usenofp.o(x$fpl$usenofp) for __I$use$fp
    btod.o(CL$$btod_div_common) refers (Special) to usenofp.o(x$fpl$usenofp) for __I$use$fp
    lc_numeric_c.o(locale$$data) refers (Special) to libinit2.o(.ARM.Collect$$libinit$$00000016) for __rt_lib_init_lc_numeric_2
    lc_numeric_c.o(locale$$code) refers (Special) to libinit2.o(.ARM.Collect$$libinit$$00000016) for __rt_lib_init_lc_numeric_2
    lc_numeric_c.o(locale$$code) refers to strcmpv7m.o(.text) for strcmp
    lc_numeric_c.o(locale$$code) refers to lc_numeric_c.o(locale$$data) for __lcnum_c_name
    fpconst.o(c$$dinf) refers (Special) to usenofp.o(x$fpl$usenofp) for __I$use$fp
    fpconst.o(c$$dnan) refers (Special) to usenofp.o(x$fpl$usenofp) for __I$use$fp
    fpconst.o(c$$finf) refers (Special) to usenofp.o(x$fpl$usenofp) for __I$use$fp
    fpconst.o(c$$dmax) refers (Special) to usenofp.o(x$fpl$usenofp) for __I$use$fp
    istatus.o(x$fpl$ieeestatus) refers (Special) to usenofp.o(x$fpl$usenofp) for __I$use$fp
    scanf2.o(x$fpl$scanf2) refers to scanf_hexfp.o(.text) for _scanf_really_hex_real
    scanf2.o(x$fpl$scanf2) refers to scanf_infnan.o(.text) for _scanf_really_infnan
    scanf2b.o(x$fpl$scanf2) refers to scanf_hexfp.o(.text) for _scanf_really_hex_real
    scanf2b.o(x$fpl$scanf2) refers to scanf_infnan.o(.text) for _scanf_really_infnan
    fpclassify.o(i.__ARM_fpclassify) refers (Special) to usenofp.o(x$fpl$usenofp) for __I$use$fp
    narrow.o(i.__mathlib_narrow) refers (Special) to usenofp.o(x$fpl$usenofp) for __I$use$fp
    narrow.o(i.__mathlib_narrow) refers to narrow.o(i.__mathlib_tofloat) for __mathlib_tofloat
    narrow.o(i.__mathlib_tofloat) refers (Special) to usenofp.o(x$fpl$usenofp) for __I$use$fp
    narrow.o(i.__mathlib_tofloat) refers to frexp.o(i.frexp) for frexp
    narrow.o(i.__mathlib_tofloat) refers to deqf.o(x$fpl$deqf) for __aeabi_cdcmpeq
    narrow.o(i.__mathlib_tofloat) refers to d2f.o(x$fpl$d2f) for __aeabi_d2f
    narrow.o(i.__mathlib_tofloat) refers to _rserrno.o(.text) for __set_errno
    narrow.o(i.__mathlib_tofloat) refers to drleqf.o(x$fpl$drleqf) for __aeabi_cdrcmple
    narrow.o(i.__softfp___mathlib_tofloat) refers (Special) to usenofp.o(x$fpl$usenofp) for __I$use$fp
    narrow.o(i.__softfp___mathlib_tofloat) refers to narrow.o(i.__mathlib_tofloat) for __mathlib_tofloat
    libspace.o(.text) refers to libspace.o(.bss) for __libspace_start
    sys_stackheap_outer.o(.text) refers to libspace.o(.text) for __user_perproc_libspace
    sys_stackheap_outer.o(.text) refers to startup_gd32f10x_hd.o(.text) for __user_initial_stackheap
    rt_ctype_table.o(.text) refers to rt_locale_intlibspace.o(.text) for __rt_locale
    rt_ctype_table.o(.text) refers to lc_ctype_c.o(locale$$code) for _get_lc_ctype
    _rserrno.o(.text) refers to rt_errno_addr_intlibspace.o(.text) for __aeabi_errno_addr
    scanf_hexfp.o(.text) refers to _chval.o(.text) for _chval
    scanf_hexfp.o(.text) refers to llshl.o(.text) for __aeabi_llsl
    scanf_hexfp.o(.text) refers to ldexp.o(i.__support_ldexp) for __support_ldexp
    scanf_hexfp.o(.text) refers to narrow.o(i.__mathlib_narrow) for __mathlib_narrow
    exit.o(.text) refers to rtexit.o(.ARM.Collect$$rtexit$$00000000) for __rt_exit
    libinit.o(.ARM.Collect$$libinit$$00000000) refers (Special) to libinit2.o(.ARM.Collect$$libinit$$0000002E) for __rt_lib_init_alloca_1
    libinit.o(.ARM.Collect$$libinit$$00000000) refers (Special) to libinit2.o(.ARM.Collect$$libinit$$0000002C) for __rt_lib_init_argv_1
    libinit.o(.ARM.Collect$$libinit$$00000000) refers (Special) to libinit2.o(.ARM.Collect$$libinit$$0000001B) for __rt_lib_init_atexit_1
    libinit.o(.ARM.Collect$$libinit$$00000000) refers (Special) to libinit2.o(.ARM.Collect$$libinit$$00000021) for __rt_lib_init_clock_1
    libinit.o(.ARM.Collect$$libinit$$00000000) refers (Special) to libinit2.o(.ARM.Collect$$libinit$$00000032) for __rt_lib_init_cpp_1
    libinit.o(.ARM.Collect$$libinit$$00000000) refers (Special) to libinit2.o(.ARM.Collect$$libinit$$00000030) for __rt_lib_init_exceptions_1
    libinit.o(.ARM.Collect$$libinit$$00000000) refers (Special) to libinit2.o(.ARM.Collect$$libinit$$00000002) for __rt_lib_init_fp_1
    libinit.o(.ARM.Collect$$libinit$$00000000) refers (Special) to libinit2.o(.ARM.Collect$$libinit$$0000001F) for __rt_lib_init_fp_trap_1
    libinit.o(.ARM.Collect$$libinit$$00000000) refers (Special) to libinit2.o(.ARM.Collect$$libinit$$00000023) for __rt_lib_init_getenv_1
    libinit.o(.ARM.Collect$$libinit$$00000000) refers (Special) to libinit2.o(.ARM.Collect$$libinit$$0000000A) for __rt_lib_init_heap_1
    libinit.o(.ARM.Collect$$libinit$$00000000) refers (Special) to libinit2.o(.ARM.Collect$$libinit$$00000011) for __rt_lib_init_lc_collate_1
    libinit.o(.ARM.Collect$$libinit$$00000000) refers (Special) to libinit2.o(.ARM.Collect$$libinit$$00000013) for __rt_lib_init_lc_ctype_1
    libinit.o(.ARM.Collect$$libinit$$00000000) refers (Special) to libinit2.o(.ARM.Collect$$libinit$$00000015) for __rt_lib_init_lc_monetary_1
    libinit.o(.ARM.Collect$$libinit$$00000000) refers (Special) to libinit2.o(.ARM.Collect$$libinit$$00000017) for __rt_lib_init_lc_numeric_1
    libinit.o(.ARM.Collect$$libinit$$00000000) refers (Special) to libinit2.o(.ARM.Collect$$libinit$$00000019) for __rt_lib_init_lc_time_1
    libinit.o(.ARM.Collect$$libinit$$00000000) refers (Special) to libinit2.o(.ARM.Collect$$libinit$$00000004) for __rt_lib_init_preinit_1
    libinit.o(.ARM.Collect$$libinit$$00000000) refers (Special) to libinit2.o(.ARM.Collect$$libinit$$0000000E) for __rt_lib_init_rand_1
    libinit.o(.ARM.Collect$$libinit$$00000000) refers (Special) to libinit2.o(.ARM.Collect$$libinit$$00000033) for __rt_lib_init_return
    libinit.o(.ARM.Collect$$libinit$$00000000) refers (Special) to libinit2.o(.ARM.Collect$$libinit$$0000001D) for __rt_lib_init_signal_1
    libinit.o(.ARM.Collect$$libinit$$00000000) refers (Special) to libinit2.o(.ARM.Collect$$libinit$$00000025) for __rt_lib_init_stdio_1
    libinit.o(.ARM.Collect$$libinit$$00000000) refers (Special) to libinit2.o(.ARM.Collect$$libinit$$0000000C) for __rt_lib_init_user_alloc_1
    libinit2.o(.ARM.Collect$$libinit$$0000000F) refers (Weak) to rt_locale_intlibspace.o(.text) for __rt_locale
    libinit2.o(.ARM.Collect$$libinit$$00000010) refers to libinit2.o(.ARM.Collect$$libinit$$0000000F) for .ARM.Collect$$libinit$$0000000F
    libinit2.o(.ARM.Collect$$libinit$$00000012) refers to libinit2.o(.ARM.Collect$$libinit$$0000000F) for .ARM.Collect$$libinit$$0000000F
    libinit2.o(.ARM.Collect$$libinit$$00000012) refers (Weak) to lc_ctype_c.o(locale$$code) for _get_lc_ctype
    libinit2.o(.ARM.Collect$$libinit$$00000014) refers to libinit2.o(.ARM.Collect$$libinit$$0000000F) for .ARM.Collect$$libinit$$0000000F
    libinit2.o(.ARM.Collect$$libinit$$00000016) refers to libinit2.o(.ARM.Collect$$libinit$$0000000F) for .ARM.Collect$$libinit$$0000000F
    libinit2.o(.ARM.Collect$$libinit$$00000016) refers (Weak) to lc_numeric_c.o(locale$$code) for _get_lc_numeric
    libinit2.o(.ARM.Collect$$libinit$$00000018) refers to libinit2.o(.ARM.Collect$$libinit$$0000000F) for .ARM.Collect$$libinit$$0000000F
    libinit2.o(.ARM.Collect$$libinit$$00000026) refers to argv_veneer.o(.emb_text) for __ARM_argv_veneer
    libinit2.o(.ARM.Collect$$libinit$$00000027) refers to argv_veneer.o(.emb_text) for __ARM_argv_veneer
    deqf.o(x$fpl$deqf) refers (Special) to usenofp.o(x$fpl$usenofp) for __I$use$fp
    deqf.o(x$fpl$deqf) refers to dnaninf.o(x$fpl$dnaninf) for __fpl_dnaninf
    deqf.o(x$fpl$deqf) refers to dcmpi.o(x$fpl$dcmpinf) for __fpl_dcmp_Inf
    frexp.o(i.__softfp_frexp) refers (Special) to usenofp.o(x$fpl$usenofp) for __I$use$fp
    frexp.o(i.__softfp_frexp) refers to scalbn.o(x$fpl$scalbn) for __ARM_scalbn
    frexp.o(i.frexp) refers (Special) to usenofp.o(x$fpl$usenofp) for __I$use$fp
    frexp.o(i.frexp) refers to scalbn.o(x$fpl$scalbn) for __ARM_scalbn
    rtexit.o(.ARM.Collect$$rtexit$$00000000) refers (Special) to rtexit2.o(.ARM.Collect$$rtexit$$00000004) for __rt_exit_exit
    rtexit.o(.ARM.Collect$$rtexit$$00000000) refers (Special) to rtexit2.o(.ARM.Collect$$rtexit$$00000003) for __rt_exit_ls
    rtexit.o(.ARM.Collect$$rtexit$$00000000) refers (Special) to rtexit2.o(.ARM.Collect$$rtexit$$00000002) for __rt_exit_prels_1
    rtexit.o(.ARM.exidx) refers (Special) to rtexit2.o(.ARM.Collect$$rtexit$$00000004) for __rt_exit_exit
    rtexit.o(.ARM.exidx) refers (Special) to rtexit2.o(.ARM.Collect$$rtexit$$00000003) for __rt_exit_ls
    rtexit.o(.ARM.exidx) refers (Special) to rtexit2.o(.ARM.Collect$$rtexit$$00000002) for __rt_exit_prels_1
    rtexit.o(.ARM.exidx) refers to rtexit.o(.ARM.Collect$$rtexit$$00000000) for .ARM.Collect$$rtexit$$00000000
    lc_ctype_c.o(locale$$data) refers (Special) to libinit2.o(.ARM.Collect$$libinit$$00000012) for __rt_lib_init_lc_ctype_2
    lc_ctype_c.o(locale$$code) refers (Special) to libinit2.o(.ARM.Collect$$libinit$$00000012) for __rt_lib_init_lc_ctype_2
    lc_ctype_c.o(locale$$code) refers to strcmpv7m.o(.text) for strcmp
    lc_ctype_c.o(locale$$code) refers to lc_ctype_c.o(locale$$data) for __lcctype_c_name
    argv_veneer.o(.emb_text) refers to no_argv.o(.text) for __ARM_get_argv
    scalbn.o(x$fpl$scalbn) refers (Special) to usenofp.o(x$fpl$usenofp) for __I$use$fp
    scalbn.o(x$fpl$scalbn) refers to dcheck1.o(x$fpl$dcheck1) for __fpl_dcheck_NaN1
    ldexp.o(i.__softfp_ldexp) refers (Special) to usenofp.o(x$fpl$usenofp) for __I$use$fp
    ldexp.o(i.__softfp_ldexp) refers to ldexp.o(i.ldexp) for ldexp
    ldexp.o(i.__support_ldexp) refers (Special) to usenofp.o(x$fpl$usenofp) for __I$use$fp
    ldexp.o(i.__support_ldexp) refers to ldexp.o(i.ldexp) for ldexp
    ldexp.o(i.ldexp) refers (Special) to usenofp.o(x$fpl$usenofp) for __I$use$fp
    ldexp.o(i.ldexp) refers to deqf.o(x$fpl$deqf) for __aeabi_cdcmpeq
    ldexp.o(i.ldexp) refers to scalbn.o(x$fpl$scalbn) for __ARM_scalbn
    ldexp.o(i.ldexp) refers to _rserrno.o(.text) for __set_errno
    ldexp.o(i.ldexp) refers to dunder.o(i.__mathlib_dbl_underflow) for __mathlib_dbl_underflow
    ldexp.o(i.ldexp) refers to dunder.o(i.__mathlib_dbl_overflow) for __mathlib_dbl_overflow
    ldexp_x.o(i.____softfp_ldexp$lsc) refers (Special) to usenofp.o(x$fpl$usenofp) for __I$use$fp
    ldexp_x.o(i.____softfp_ldexp$lsc) refers to ldexp_x.o(i.__ldexp$lsc) for __ldexp$lsc
    ldexp_x.o(i.____support_ldexp$lsc) refers (Special) to usenofp.o(x$fpl$usenofp) for __I$use$fp
    ldexp_x.o(i.____support_ldexp$lsc) refers to ldexp_x.o(i.__ldexp$lsc) for __ldexp$lsc
    ldexp_x.o(i.__ldexp$lsc) refers (Special) to usenofp.o(x$fpl$usenofp) for __I$use$fp
    ldexp_x.o(i.__ldexp$lsc) refers to deqf.o(x$fpl$deqf) for __aeabi_cdcmpeq
    ldexp_x.o(i.__ldexp$lsc) refers to scalbn.o(x$fpl$scalbn) for __ARM_scalbn
    ldexp_x.o(i.__ldexp$lsc) refers to _rserrno.o(.text) for __set_errno
    ldexp_x.o(i.__ldexp$lsc) refers to qnan.o(.constdata) for __mathlib_zero
    rtexit2.o(.ARM.Collect$$rtexit$$00000003) refers to libshutdown.o(.ARM.Collect$$libshutdown$$00000000) for __rt_lib_shutdown
    rtexit2.o(.ARM.Collect$$rtexit$$00000004) refers to sys_exit.o(.text) for _sys_exit
    rtexit2.o(.ARM.exidx) refers to rtexit2.o(.ARM.Collect$$rtexit$$00000001) for .ARM.Collect$$rtexit$$00000001
    rtexit2.o(.ARM.exidx) refers to rtexit2.o(.ARM.Collect$$rtexit$$00000003) for .ARM.Collect$$rtexit$$00000003
    rtexit2.o(.ARM.exidx) refers to rtexit2.o(.ARM.Collect$$rtexit$$00000004) for .ARM.Collect$$rtexit$$00000004
    _get_argv_nomalloc.o(.text) refers (Special) to hrguard.o(.text) for __heap_region$guard
    _get_argv_nomalloc.o(.text) refers to defsig_rtmem_outer.o(.text) for __rt_SIGRTMEM
    _get_argv_nomalloc.o(.text) refers to sys_command.o(.text) for _sys_command_string
    dcheck1.o(x$fpl$dcheck1) refers (Special) to usenofp.o(x$fpl$usenofp) for __I$use$fp
    dcheck1.o(x$fpl$dcheck1) refers to retnan.o(x$fpl$retnan) for __fpl_return_NaN
    dunder.o(i.__mathlib_dbl_divzero) refers to ddiv.o(x$fpl$ddiv) for __aeabi_ddiv
    dunder.o(i.__mathlib_dbl_infnan) refers to scalbn.o(x$fpl$scalbn) for __ARM_scalbn
    dunder.o(i.__mathlib_dbl_infnan2) refers to daddsub_clz.o(x$fpl$dadd) for __aeabi_dadd
    dunder.o(i.__mathlib_dbl_invalid) refers to ddiv.o(x$fpl$ddiv) for __aeabi_ddiv
    dunder.o(i.__mathlib_dbl_overflow) refers to scalbn.o(x$fpl$scalbn) for __ARM_scalbn
    dunder.o(i.__mathlib_dbl_posinfnan) refers to dmul.o(x$fpl$dmul) for __aeabi_dmul
    dunder.o(i.__mathlib_dbl_underflow) refers to scalbn.o(x$fpl$scalbn) for __ARM_scalbn
    qnan.o(.constdata) refers (Special) to usenofp.o(x$fpl$usenofp) for __I$use$fp
    sys_command.o(.text) refers (Special) to use_no_semi.o(.text) for __I$use$semihosting
    sys_command.o(.text) refers (Special) to indicate_semi.o(.text) for __semihosting_library_function
    sys_exit.o(.text) refers (Special) to use_no_semi.o(.text) for __I$use$semihosting
    sys_exit.o(.text) refers (Special) to indicate_semi.o(.text) for __semihosting_library_function
    defsig_rtmem_outer.o(.text) refers to defsig_rtmem_inner.o(.text) for __rt_SIGRTMEM_inner
    defsig_rtmem_outer.o(.text) refers to defsig_exit.o(.text) for __sig_exit
    defsig_rtmem_formal.o(.text) refers to rt_raise.o(.text) for __rt_raise
    libshutdown.o(.ARM.Collect$$libshutdown$$00000000) refers (Special) to libshutdown2.o(.ARM.Collect$$libshutdown$$00000004) for __rt_lib_shutdown_cpp_1
    libshutdown.o(.ARM.Collect$$libshutdown$$00000000) refers (Special) to libshutdown2.o(.ARM.Collect$$libshutdown$$00000002) for __rt_lib_shutdown_fini_1
    libshutdown.o(.ARM.Collect$$libshutdown$$00000000) refers (Special) to libshutdown2.o(.ARM.Collect$$libshutdown$$00000009) for __rt_lib_shutdown_fp_trap_1
    libshutdown.o(.ARM.Collect$$libshutdown$$00000000) refers (Special) to libshutdown2.o(.ARM.Collect$$libshutdown$$00000011) for __rt_lib_shutdown_heap_1
    libshutdown.o(.ARM.Collect$$libshutdown$$00000000) refers (Special) to libshutdown2.o(.ARM.Collect$$libshutdown$$00000012) for __rt_lib_shutdown_return
    libshutdown.o(.ARM.Collect$$libshutdown$$00000000) refers (Special) to libshutdown2.o(.ARM.Collect$$libshutdown$$0000000C) for __rt_lib_shutdown_signal_1
    libshutdown.o(.ARM.Collect$$libshutdown$$00000000) refers (Special) to libshutdown2.o(.ARM.Collect$$libshutdown$$00000006) for __rt_lib_shutdown_stdio_1
    libshutdown.o(.ARM.Collect$$libshutdown$$00000000) refers (Special) to libshutdown2.o(.ARM.Collect$$libshutdown$$0000000E) for __rt_lib_shutdown_user_alloc_1
    retnan.o(x$fpl$retnan) refers (Special) to usenofp.o(x$fpl$usenofp) for __I$use$fp
    retnan.o(x$fpl$retnan) refers to trapv.o(x$fpl$trapveneer) for __fpl_cmpreturn
    rt_raise.o(.text) refers to __raise.o(.text) for __raise
    rt_raise.o(.text) refers to sys_exit.o(.text) for _sys_exit
    defsig_exit.o(.text) refers to sys_exit.o(.text) for _sys_exit
    defsig_rtmem_inner.o(.text) refers to defsig_general.o(.text) for __default_signal_display
    trapv.o(x$fpl$trapveneer) refers (Special) to usenofp.o(x$fpl$usenofp) for __I$use$fp
    __raise.o(.text) refers to defsig.o(CL$$defsig) for __default_signal_handler
    defsig_general.o(.text) refers to sys_wrch.o(.text) for _ttywrch
    sys_wrch.o(.text) refers (Special) to use_no_semi.o(.text) for __I$use$semihosting
    sys_wrch.o(.text) refers (Special) to indicate_semi.o(.text) for __semihosting_library_function
    defsig.o(CL$$defsig) refers to defsig_rtmem_inner.o(.text) for __rt_SIGRTMEM_inner
    defsig_abrt_inner.o(.text) refers to defsig_general.o(.text) for __default_signal_display
    defsig_fpe_inner.o(.text) refers to defsig_general.o(.text) for __default_signal_display
    defsig_rtred_inner.o(.text) refers to defsig_general.o(.text) for __default_signal_display
    defsig_stak_inner.o(.text) refers to defsig_general.o(.text) for __default_signal_display
    defsig_pvfn_inner.o(.text) refers to defsig_general.o(.text) for __default_signal_display
    defsig_cppl_inner.o(.text) refers to defsig_general.o(.text) for __default_signal_display
    defsig_segv_inner.o(.text) refers to defsig_general.o(.text) for __default_signal_display
    defsig_other.o(.text) refers to defsig_general.o(.text) for __default_signal_display


==============================================================================

Removing Unused input sections from the image.

    Removing system_gd32f10x.o(.rev16_text), (4 bytes).
    Removing system_gd32f10x.o(.revsh_text), (4 bytes).
    Removing gd32f10x_adc.o(.rev16_text), (4 bytes).
    Removing gd32f10x_adc.o(.revsh_text), (4 bytes).
    Removing gd32f10x_adc.o(i.adc_disable), (10 bytes).
    Removing gd32f10x_adc.o(i.adc_discontinuous_mode_config), (76 bytes).
    Removing gd32f10x_adc.o(i.adc_dma_mode_disable), (10 bytes).
    Removing gd32f10x_adc.o(i.adc_dma_mode_enable), (10 bytes).
    Removing gd32f10x_adc.o(i.adc_flag_clear), (8 bytes).
    Removing gd32f10x_adc.o(i.adc_inserted_channel_config), (120 bytes).
    Removing gd32f10x_adc.o(i.adc_inserted_channel_offset_config), (36 bytes).
    Removing gd32f10x_adc.o(i.adc_inserted_data_read), (46 bytes).
    Removing gd32f10x_adc.o(i.adc_inserted_software_startconv_flag_get), (16 bytes).
    Removing gd32f10x_adc.o(i.adc_interrupt_disable), (44 bytes).
    Removing gd32f10x_adc.o(i.adc_interrupt_enable), (44 bytes).
    Removing gd32f10x_adc.o(i.adc_interrupt_flag_clear), (8 bytes).
    Removing gd32f10x_adc.o(i.adc_interrupt_flag_get), (88 bytes).
    Removing gd32f10x_adc.o(i.adc_regular_software_startconv_flag_get), (16 bytes).
    Removing gd32f10x_adc.o(i.adc_sync_mode_convert_value_read), (12 bytes).
    Removing gd32f10x_adc.o(i.adc_tempsensor_vrefint_disable), (20 bytes).
    Removing gd32f10x_adc.o(i.adc_tempsensor_vrefint_enable), (20 bytes).
    Removing gd32f10x_adc.o(i.adc_watchdog_disable), (16 bytes).
    Removing gd32f10x_adc.o(i.adc_watchdog_group_channel_enable), (64 bytes).
    Removing gd32f10x_adc.o(i.adc_watchdog_single_channel_enable), (32 bytes).
    Removing gd32f10x_adc.o(i.adc_watchdog_threshold_config), (14 bytes).
    Removing gd32f10x_bkp.o(.rev16_text), (4 bytes).
    Removing gd32f10x_bkp.o(.revsh_text), (4 bytes).
    Removing gd32f10x_bkp.o(i.bkp_data_read), (56 bytes).
    Removing gd32f10x_bkp.o(i.bkp_data_write), (52 bytes).
    Removing gd32f10x_bkp.o(i.bkp_deinit), (12 bytes).
    Removing gd32f10x_bkp.o(i.bkp_flag_clear), (20 bytes).
    Removing gd32f10x_bkp.o(i.bkp_flag_get), (24 bytes).
    Removing gd32f10x_bkp.o(i.bkp_interrupt_disable), (20 bytes).
    Removing gd32f10x_bkp.o(i.bkp_interrupt_enable), (20 bytes).
    Removing gd32f10x_bkp.o(i.bkp_interrupt_flag_clear), (20 bytes).
    Removing gd32f10x_bkp.o(i.bkp_interrupt_flag_get), (24 bytes).
    Removing gd32f10x_bkp.o(i.bkp_rtc_calibration_output_disable), (20 bytes).
    Removing gd32f10x_bkp.o(i.bkp_rtc_calibration_output_enable), (20 bytes).
    Removing gd32f10x_bkp.o(i.bkp_rtc_calibration_value_set), (28 bytes).
    Removing gd32f10x_bkp.o(i.bkp_rtc_output_select), (28 bytes).
    Removing gd32f10x_bkp.o(i.bkp_rtc_signal_output_disable), (20 bytes).
    Removing gd32f10x_bkp.o(i.bkp_rtc_signal_output_enable), (20 bytes).
    Removing gd32f10x_bkp.o(i.bkp_tamper_active_level_set), (28 bytes).
    Removing gd32f10x_bkp.o(i.bkp_tamper_detection_disable), (20 bytes).
    Removing gd32f10x_bkp.o(i.bkp_tamper_detection_enable), (20 bytes).
    Removing gd32f10x_can.o(.rev16_text), (4 bytes).
    Removing gd32f10x_can.o(.revsh_text), (4 bytes).
    Removing gd32f10x_can.o(i.can1_filter_start_bank), (56 bytes).
    Removing gd32f10x_can.o(i.can_debug_freeze_disable), (32 bytes).
    Removing gd32f10x_can.o(i.can_debug_freeze_enable), (32 bytes).
    Removing gd32f10x_can.o(i.can_deinit), (32 bytes).
    Removing gd32f10x_can.o(i.can_error_get), (12 bytes).
    Removing gd32f10x_can.o(i.can_fifo_release), (32 bytes).
    Removing gd32f10x_can.o(i.can_filter_init), (272 bytes).
    Removing gd32f10x_can.o(i.can_flag_clear), (52 bytes).
    Removing gd32f10x_can.o(i.can_flag_get), (30 bytes).
    Removing gd32f10x_can.o(i.can_init), (290 bytes).
    Removing gd32f10x_can.o(i.can_interrupt_disable), (8 bytes).
    Removing gd32f10x_can.o(i.can_interrupt_enable), (8 bytes).
    Removing gd32f10x_can.o(i.can_interrupt_flag_clear), (56 bytes).
    Removing gd32f10x_can.o(i.can_interrupt_flag_get), (116 bytes).
    Removing gd32f10x_can.o(i.can_message_receive), (230 bytes).
    Removing gd32f10x_can.o(i.can_message_transmit), (336 bytes).
    Removing gd32f10x_can.o(i.can_receive_error_number_get), (8 bytes).
    Removing gd32f10x_can.o(i.can_receive_message_length_get), (26 bytes).
    Removing gd32f10x_can.o(i.can_struct_para_init), (160 bytes).
    Removing gd32f10x_can.o(i.can_time_trigger_mode_disable), (48 bytes).
    Removing gd32f10x_can.o(i.can_time_trigger_mode_enable), (48 bytes).
    Removing gd32f10x_can.o(i.can_transmission_stop), (80 bytes).
    Removing gd32f10x_can.o(i.can_transmit_error_number_get), (10 bytes).
    Removing gd32f10x_can.o(i.can_transmit_states), (124 bytes).
    Removing gd32f10x_can.o(i.can_wakeup), (48 bytes).
    Removing gd32f10x_can.o(i.can_working_mode_set), (168 bytes).
    Removing gd32f10x_crc.o(.rev16_text), (4 bytes).
    Removing gd32f10x_crc.o(.revsh_text), (4 bytes).
    Removing gd32f10x_crc.o(i.crc_block_data_calculate), (36 bytes).
    Removing gd32f10x_crc.o(i.crc_data_register_read), (12 bytes).
    Removing gd32f10x_crc.o(i.crc_data_register_reset), (20 bytes).
    Removing gd32f10x_crc.o(i.crc_deinit), (24 bytes).
    Removing gd32f10x_crc.o(i.crc_free_data_register_read), (12 bytes).
    Removing gd32f10x_crc.o(i.crc_free_data_register_write), (12 bytes).
    Removing gd32f10x_crc.o(i.crc_single_data_calculate), (16 bytes).
    Removing gd32f10x_dac.o(.rev16_text), (4 bytes).
    Removing gd32f10x_dac.o(.revsh_text), (4 bytes).
    Removing gd32f10x_dac.o(i.dac_concurrent_data_set), (64 bytes).
    Removing gd32f10x_dac.o(i.dac_concurrent_disable), (24 bytes).
    Removing gd32f10x_dac.o(i.dac_concurrent_enable), (24 bytes).
    Removing gd32f10x_dac.o(i.dac_concurrent_output_buffer_disable), (24 bytes).
    Removing gd32f10x_dac.o(i.dac_concurrent_output_buffer_enable), (24 bytes).
    Removing gd32f10x_dac.o(i.dac_concurrent_software_trigger_disable), (20 bytes).
    Removing gd32f10x_dac.o(i.dac_concurrent_software_trigger_enable), (20 bytes).
    Removing gd32f10x_dac.o(i.dac_data_set), (88 bytes).
    Removing gd32f10x_dac.o(i.dac_deinit), (20 bytes).
    Removing gd32f10x_dac.o(i.dac_disable), (36 bytes).
    Removing gd32f10x_dac.o(i.dac_dma_disable), (36 bytes).
    Removing gd32f10x_dac.o(i.dac_dma_enable), (36 bytes).
    Removing gd32f10x_dac.o(i.dac_enable), (36 bytes).
    Removing gd32f10x_dac.o(i.dac_lfsr_noise_config), (52 bytes).
    Removing gd32f10x_dac.o(i.dac_output_buffer_disable), (36 bytes).
    Removing gd32f10x_dac.o(i.dac_output_buffer_enable), (36 bytes).
    Removing gd32f10x_dac.o(i.dac_output_value_get), (28 bytes).
    Removing gd32f10x_dac.o(i.dac_software_trigger_disable), (36 bytes).
    Removing gd32f10x_dac.o(i.dac_software_trigger_enable), (36 bytes).
    Removing gd32f10x_dac.o(i.dac_triangle_noise_config), (52 bytes).
    Removing gd32f10x_dac.o(i.dac_trigger_disable), (36 bytes).
    Removing gd32f10x_dac.o(i.dac_trigger_enable), (36 bytes).
    Removing gd32f10x_dac.o(i.dac_trigger_source_config), (52 bytes).
    Removing gd32f10x_dac.o(i.dac_wave_bit_width_config), (52 bytes).
    Removing gd32f10x_dac.o(i.dac_wave_mode_config), (52 bytes).
    Removing gd32f10x_dbg.o(.rev16_text), (4 bytes).
    Removing gd32f10x_dbg.o(.revsh_text), (4 bytes).
    Removing gd32f10x_dbg.o(i.dbg_id_get), (12 bytes).
    Removing gd32f10x_dbg.o(i.dbg_low_power_disable), (16 bytes).
    Removing gd32f10x_dbg.o(i.dbg_low_power_enable), (16 bytes).
    Removing gd32f10x_dbg.o(i.dbg_periph_disable), (16 bytes).
    Removing gd32f10x_dbg.o(i.dbg_periph_enable), (16 bytes).
    Removing gd32f10x_dbg.o(i.dbg_trace_pin_disable), (20 bytes).
    Removing gd32f10x_dbg.o(i.dbg_trace_pin_enable), (20 bytes).
    Removing gd32f10x_dbg.o(i.dbg_trace_pin_mode_set), (28 bytes).
    Removing gd32f10x_dma.o(.rev16_text), (4 bytes).
    Removing gd32f10x_dma.o(.revsh_text), (4 bytes).
    Removing gd32f10x_dma.o(i.dma_channel_disable), (50 bytes).
    Removing gd32f10x_dma.o(i.dma_channel_enable), (50 bytes).
    Removing gd32f10x_dma.o(i.dma_circulation_disable), (50 bytes).
    Removing gd32f10x_dma.o(i.dma_circulation_enable), (50 bytes).
    Removing gd32f10x_dma.o(i.dma_deinit), (112 bytes).
    Removing gd32f10x_dma.o(i.dma_flag_clear), (16 bytes).
    Removing gd32f10x_dma.o(i.dma_flag_get), (24 bytes).
    Removing gd32f10x_dma.o(i.dma_init), (302 bytes).
    Removing gd32f10x_dma.o(i.dma_interrupt_disable), (50 bytes).
    Removing gd32f10x_dma.o(i.dma_interrupt_enable), (50 bytes).
    Removing gd32f10x_dma.o(i.dma_interrupt_flag_clear), (16 bytes).
    Removing gd32f10x_dma.o(i.dma_interrupt_flag_get), (130 bytes).
    Removing gd32f10x_dma.o(i.dma_memory_address_config), (36 bytes).
    Removing gd32f10x_dma.o(i.dma_memory_increase_disable), (50 bytes).
    Removing gd32f10x_dma.o(i.dma_memory_increase_enable), (50 bytes).
    Removing gd32f10x_dma.o(i.dma_memory_to_memory_disable), (50 bytes).
    Removing gd32f10x_dma.o(i.dma_memory_to_memory_enable), (50 bytes).
    Removing gd32f10x_dma.o(i.dma_memory_width_config), (58 bytes).
    Removing gd32f10x_dma.o(i.dma_periph_address_config), (36 bytes).
    Removing gd32f10x_dma.o(i.dma_periph_and_channel_check), (24 bytes).
    Removing gd32f10x_dma.o(i.dma_periph_increase_disable), (50 bytes).
    Removing gd32f10x_dma.o(i.dma_periph_increase_enable), (50 bytes).
    Removing gd32f10x_dma.o(i.dma_periph_width_config), (58 bytes).
    Removing gd32f10x_dma.o(i.dma_priority_config), (58 bytes).
    Removing gd32f10x_dma.o(i.dma_struct_para_init), (22 bytes).
    Removing gd32f10x_dma.o(i.dma_transfer_direction_config), (84 bytes).
    Removing gd32f10x_dma.o(i.dma_transfer_number_config), (38 bytes).
    Removing gd32f10x_dma.o(i.dma_transfer_number_get), (34 bytes).
    Removing gd32f10x_enet.o(.rev16_text), (4 bytes).
    Removing gd32f10x_enet.o(.revsh_text), (4 bytes).
    Removing gd32f10x_exmc.o(.rev16_text), (4 bytes).
    Removing gd32f10x_exmc.o(.revsh_text), (4 bytes).
    Removing gd32f10x_exmc.o(i.exmc_ecc_get), (12 bytes).
    Removing gd32f10x_exmc.o(i.exmc_flag_clear), (20 bytes).
    Removing gd32f10x_exmc.o(i.exmc_flag_get), (28 bytes).
    Removing gd32f10x_exmc.o(i.exmc_interrupt_disable), (20 bytes).
    Removing gd32f10x_exmc.o(i.exmc_interrupt_enable), (20 bytes).
    Removing gd32f10x_exmc.o(i.exmc_interrupt_flag_clear), (22 bytes).
    Removing gd32f10x_exmc.o(i.exmc_interrupt_flag_get), (38 bytes).
    Removing gd32f10x_exmc.o(i.exmc_nand_deinit), (42 bytes).
    Removing gd32f10x_exmc.o(i.exmc_nand_disable), (22 bytes).
    Removing gd32f10x_exmc.o(i.exmc_nand_ecc_config), (48 bytes).
    Removing gd32f10x_exmc.o(i.exmc_nand_enable), (22 bytes).
    Removing gd32f10x_exmc.o(i.exmc_nand_init), (174 bytes).
    Removing gd32f10x_exmc.o(i.exmc_nand_struct_para_init), (54 bytes).
    Removing gd32f10x_exmc.o(i.exmc_norsram_deinit), (52 bytes).
    Removing gd32f10x_exmc.o(i.exmc_norsram_disable), (22 bytes).
    Removing gd32f10x_exmc.o(i.exmc_norsram_enable), (22 bytes).
    Removing gd32f10x_exmc.o(i.exmc_norsram_init), (268 bytes).
    Removing gd32f10x_exmc.o(i.exmc_norsram_struct_para_init), (106 bytes).
    Removing gd32f10x_exmc.o(i.exmc_pccard_deinit), (40 bytes).
    Removing gd32f10x_exmc.o(i.exmc_pccard_disable), (24 bytes).
    Removing gd32f10x_exmc.o(i.exmc_pccard_enable), (24 bytes).
    Removing gd32f10x_exmc.o(i.exmc_pccard_init), (192 bytes).
    Removing gd32f10x_exmc.o(i.exmc_pccard_struct_para_init), (60 bytes).
    Removing gd32f10x_exti.o(.rev16_text), (4 bytes).
    Removing gd32f10x_exti.o(.revsh_text), (4 bytes).
    Removing gd32f10x_exti.o(i.exti_deinit), (28 bytes).
    Removing gd32f10x_exti.o(i.exti_event_disable), (16 bytes).
    Removing gd32f10x_exti.o(i.exti_event_enable), (16 bytes).
    Removing gd32f10x_exti.o(i.exti_flag_clear), (12 bytes).
    Removing gd32f10x_exti.o(i.exti_flag_get), (24 bytes).
    Removing gd32f10x_exti.o(i.exti_init), (188 bytes).
    Removing gd32f10x_exti.o(i.exti_interrupt_disable), (16 bytes).
    Removing gd32f10x_exti.o(i.exti_interrupt_enable), (16 bytes).
    Removing gd32f10x_exti.o(i.exti_interrupt_flag_clear), (12 bytes).
    Removing gd32f10x_exti.o(i.exti_interrupt_flag_get), (24 bytes).
    Removing gd32f10x_exti.o(i.exti_software_interrupt_disable), (16 bytes).
    Removing gd32f10x_exti.o(i.exti_software_interrupt_enable), (16 bytes).
    Removing gd32f10x_fmc.o(.rev16_text), (4 bytes).
    Removing gd32f10x_fmc.o(.revsh_text), (4 bytes).
    Removing gd32f10x_fmc.o(i.fmc_bank0_erase), (68 bytes).
    Removing gd32f10x_fmc.o(i.fmc_bank0_lock), (20 bytes).
    Removing gd32f10x_fmc.o(i.fmc_bank0_ready_wait), (34 bytes).
    Removing gd32f10x_fmc.o(i.fmc_bank0_state_get), (48 bytes).
    Removing gd32f10x_fmc.o(i.fmc_bank0_unlock), (36 bytes).
    Removing gd32f10x_fmc.o(i.fmc_bank1_erase), (68 bytes).
    Removing gd32f10x_fmc.o(i.fmc_bank1_lock), (20 bytes).
    Removing gd32f10x_fmc.o(i.fmc_bank1_ready_wait), (34 bytes).
    Removing gd32f10x_fmc.o(i.fmc_bank1_state_get), (48 bytes).
    Removing gd32f10x_fmc.o(i.fmc_bank1_unlock), (36 bytes).
    Removing gd32f10x_fmc.o(i.fmc_flag_clear), (32 bytes).
    Removing gd32f10x_fmc.o(i.fmc_flag_get), (36 bytes).
    Removing gd32f10x_fmc.o(i.fmc_halfword_program), (192 bytes).
    Removing gd32f10x_fmc.o(i.fmc_interrupt_disable), (32 bytes).
    Removing gd32f10x_fmc.o(i.fmc_interrupt_enable), (32 bytes).
    Removing gd32f10x_fmc.o(i.fmc_interrupt_flag_clear), (32 bytes).
    Removing gd32f10x_fmc.o(i.fmc_interrupt_flag_get), (108 bytes).
    Removing gd32f10x_fmc.o(i.fmc_lock), (44 bytes).
    Removing gd32f10x_fmc.o(i.fmc_mass_erase), (196 bytes).
    Removing gd32f10x_fmc.o(i.fmc_page_erase), (236 bytes).
    Removing gd32f10x_fmc.o(i.fmc_unlock), (68 bytes).
    Removing gd32f10x_fmc.o(i.fmc_word_program), (192 bytes).
    Removing gd32f10x_fmc.o(i.fmc_wscnt_set), (24 bytes).
    Removing gd32f10x_fmc.o(i.ob_data_get), (16 bytes).
    Removing gd32f10x_fmc.o(i.ob_data_program), (68 bytes).
    Removing gd32f10x_fmc.o(i.ob_erase), (140 bytes).
    Removing gd32f10x_fmc.o(i.ob_lock), (20 bytes).
    Removing gd32f10x_fmc.o(i.ob_security_protection_config), (132 bytes).
    Removing gd32f10x_fmc.o(i.ob_spc_get), (24 bytes).
    Removing gd32f10x_fmc.o(i.ob_unlock), (48 bytes).
    Removing gd32f10x_fmc.o(i.ob_user_get), (16 bytes).
    Removing gd32f10x_fmc.o(i.ob_user_write), (96 bytes).
    Removing gd32f10x_fmc.o(i.ob_write_protection_enable), (168 bytes).
    Removing gd32f10x_fmc.o(i.ob_write_protection_get), (12 bytes).
    Removing gd32f10x_fwdgt.o(.rev16_text), (4 bytes).
    Removing gd32f10x_fwdgt.o(.revsh_text), (4 bytes).
    Removing gd32f10x_fwdgt.o(i.fwdgt_config), (104 bytes).
    Removing gd32f10x_fwdgt.o(i.fwdgt_counter_reload), (16 bytes).
    Removing gd32f10x_fwdgt.o(i.fwdgt_enable), (16 bytes).
    Removing gd32f10x_fwdgt.o(i.fwdgt_flag_get), (24 bytes).
    Removing gd32f10x_fwdgt.o(i.fwdgt_prescaler_value_config), (60 bytes).
    Removing gd32f10x_fwdgt.o(i.fwdgt_reload_value_config), (64 bytes).
    Removing gd32f10x_fwdgt.o(i.fwdgt_write_disable), (12 bytes).
    Removing gd32f10x_fwdgt.o(i.fwdgt_write_enable), (16 bytes).
    Removing gd32f10x_gpio.o(.rev16_text), (4 bytes).
    Removing gd32f10x_gpio.o(.revsh_text), (4 bytes).
    Removing gd32f10x_gpio.o(i.gpio_afio_deinit), (20 bytes).
    Removing gd32f10x_gpio.o(i.gpio_bit_reset), (4 bytes).
    Removing gd32f10x_gpio.o(i.gpio_bit_set), (4 bytes).
    Removing gd32f10x_gpio.o(i.gpio_bit_write), (10 bytes).
    Removing gd32f10x_gpio.o(i.gpio_deinit), (196 bytes).
    Removing gd32f10x_gpio.o(i.gpio_event_output_config), (28 bytes).
    Removing gd32f10x_gpio.o(i.gpio_event_output_disable), (20 bytes).
    Removing gd32f10x_gpio.o(i.gpio_event_output_enable), (20 bytes).
    Removing gd32f10x_gpio.o(i.gpio_exti_source_select), (152 bytes).
    Removing gd32f10x_gpio.o(i.gpio_input_port_get), (8 bytes).
    Removing gd32f10x_gpio.o(i.gpio_output_bit_get), (16 bytes).
    Removing gd32f10x_gpio.o(i.gpio_output_port_get), (8 bytes).
    Removing gd32f10x_gpio.o(i.gpio_pin_lock), (18 bytes).
    Removing gd32f10x_gpio.o(i.gpio_port_write), (4 bytes).
    Removing gd32f10x_i2c.o(.rev16_text), (4 bytes).
    Removing gd32f10x_i2c.o(.revsh_text), (4 bytes).
    Removing gd32f10x_i2c.o(i.i2c_ack_config), (16 bytes).
    Removing gd32f10x_i2c.o(i.i2c_ackpos_config), (16 bytes).
    Removing gd32f10x_i2c.o(i.i2c_clock_config), (228 bytes).
    Removing gd32f10x_i2c.o(i.i2c_data_receive), (8 bytes).
    Removing gd32f10x_i2c.o(i.i2c_data_transmit), (6 bytes).
    Removing gd32f10x_i2c.o(i.i2c_deinit), (64 bytes).
    Removing gd32f10x_i2c.o(i.i2c_disable), (10 bytes).
    Removing gd32f10x_i2c.o(i.i2c_dma_config), (16 bytes).
    Removing gd32f10x_i2c.o(i.i2c_dma_last_transfer_config), (16 bytes).
    Removing gd32f10x_i2c.o(i.i2c_dualaddr_disable), (10 bytes).
    Removing gd32f10x_i2c.o(i.i2c_dualaddr_enable), (12 bytes).
    Removing gd32f10x_i2c.o(i.i2c_enable), (10 bytes).
    Removing gd32f10x_i2c.o(i.i2c_flag_clear), (40 bytes).
    Removing gd32f10x_i2c.o(i.i2c_flag_get), (30 bytes).
    Removing gd32f10x_i2c.o(i.i2c_interrupt_disable), (26 bytes).
    Removing gd32f10x_i2c.o(i.i2c_interrupt_enable), (26 bytes).
    Removing gd32f10x_i2c.o(i.i2c_interrupt_flag_clear), (44 bytes).
    Removing gd32f10x_i2c.o(i.i2c_interrupt_flag_get), (92 bytes).
    Removing gd32f10x_i2c.o(i.i2c_master_addressing), (20 bytes).
    Removing gd32f10x_i2c.o(i.i2c_mode_addr_config), (28 bytes).
    Removing gd32f10x_i2c.o(i.i2c_pec_config), (16 bytes).
    Removing gd32f10x_i2c.o(i.i2c_pec_transfer_config), (16 bytes).
    Removing gd32f10x_i2c.o(i.i2c_pec_value_get), (10 bytes).
    Removing gd32f10x_i2c.o(i.i2c_slave_response_to_gcall_config), (16 bytes).
    Removing gd32f10x_i2c.o(i.i2c_smbus_alert_config), (16 bytes).
    Removing gd32f10x_i2c.o(i.i2c_smbus_arp_config), (16 bytes).
    Removing gd32f10x_i2c.o(i.i2c_smbus_type_config), (24 bytes).
    Removing gd32f10x_i2c.o(i.i2c_software_reset_config), (16 bytes).
    Removing gd32f10x_i2c.o(i.i2c_start_on_bus), (10 bytes).
    Removing gd32f10x_i2c.o(i.i2c_stop_on_bus), (10 bytes).
    Removing gd32f10x_i2c.o(i.i2c_stretch_scl_low_config), (16 bytes).
    Removing gd32f10x_misc.o(.rev16_text), (4 bytes).
    Removing gd32f10x_misc.o(.revsh_text), (4 bytes).
    Removing gd32f10x_misc.o(i.nvic_irq_disable), (24 bytes).
    Removing gd32f10x_misc.o(i.system_lowpower_reset), (16 bytes).
    Removing gd32f10x_misc.o(i.system_lowpower_set), (16 bytes).
    Removing gd32f10x_misc.o(i.systick_clksource_set), (40 bytes).
    Removing gd32f10x_pmu.o(.rev16_text), (4 bytes).
    Removing gd32f10x_pmu.o(.revsh_text), (4 bytes).
    Removing gd32f10x_pmu.o(i.pmu_backup_write_disable), (20 bytes).
    Removing gd32f10x_pmu.o(i.pmu_backup_write_enable), (20 bytes).
    Removing gd32f10x_pmu.o(i.pmu_deinit), (20 bytes).
    Removing gd32f10x_pmu.o(i.pmu_flag_clear), (48 bytes).
    Removing gd32f10x_pmu.o(i.pmu_flag_get), (24 bytes).
    Removing gd32f10x_pmu.o(i.pmu_lvd_disable), (20 bytes).
    Removing gd32f10x_pmu.o(i.pmu_lvd_select), (48 bytes).
    Removing gd32f10x_pmu.o(i.pmu_to_deepsleepmode), (196 bytes).
    Removing gd32f10x_pmu.o(i.pmu_to_sleepmode), (28 bytes).
    Removing gd32f10x_pmu.o(i.pmu_to_standbymode), (100 bytes).
    Removing gd32f10x_pmu.o(i.pmu_wakeup_pin_disable), (20 bytes).
    Removing gd32f10x_pmu.o(i.pmu_wakeup_pin_enable), (20 bytes).
    Removing gd32f10x_pmu.o(.bss), (16 bytes).
    Removing gd32f10x_rcu.o(.rev16_text), (4 bytes).
    Removing gd32f10x_rcu.o(.revsh_text), (4 bytes).
    Removing gd32f10x_rcu.o(i.rcu_ahb_clock_config), (24 bytes).
    Removing gd32f10x_rcu.o(i.rcu_all_reset_flag_clear), (20 bytes).
    Removing gd32f10x_rcu.o(i.rcu_apb1_clock_config), (24 bytes).
    Removing gd32f10x_rcu.o(i.rcu_apb2_clock_config), (24 bytes).
    Removing gd32f10x_rcu.o(i.rcu_bkp_reset_disable), (20 bytes).
    Removing gd32f10x_rcu.o(i.rcu_bkp_reset_enable), (20 bytes).
    Removing gd32f10x_rcu.o(i.rcu_ckout0_config), (24 bytes).
    Removing gd32f10x_rcu.o(i.rcu_deepsleep_voltage_set), (16 bytes).
    Removing gd32f10x_rcu.o(i.rcu_deinit), (88 bytes).
    Removing gd32f10x_rcu.o(i.rcu_flag_get), (36 bytes).
    Removing gd32f10x_rcu.o(i.rcu_hxtal_clock_monitor_disable), (20 bytes).
    Removing gd32f10x_rcu.o(i.rcu_hxtal_clock_monitor_enable), (20 bytes).
    Removing gd32f10x_rcu.o(i.rcu_interrupt_disable), (32 bytes).
    Removing gd32f10x_rcu.o(i.rcu_interrupt_enable), (32 bytes).
    Removing gd32f10x_rcu.o(i.rcu_interrupt_flag_clear), (32 bytes).
    Removing gd32f10x_rcu.o(i.rcu_interrupt_flag_get), (36 bytes).
    Removing gd32f10x_rcu.o(i.rcu_irc8m_adjust_value_set), (28 bytes).
    Removing gd32f10x_rcu.o(i.rcu_osci_bypass_mode_disable), (92 bytes).
    Removing gd32f10x_rcu.o(i.rcu_osci_bypass_mode_enable), (92 bytes).
    Removing gd32f10x_rcu.o(i.rcu_osci_off), (32 bytes).
    Removing gd32f10x_rcu.o(i.rcu_osci_on), (32 bytes).
    Removing gd32f10x_rcu.o(i.rcu_osci_stab_wait), (224 bytes).
    Removing gd32f10x_rcu.o(i.rcu_periph_clock_disable), (32 bytes).
    Removing gd32f10x_rcu.o(i.rcu_periph_clock_sleep_disable), (32 bytes).
    Removing gd32f10x_rcu.o(i.rcu_periph_clock_sleep_enable), (32 bytes).
    Removing gd32f10x_rcu.o(i.rcu_pll_config), (32 bytes).
    Removing gd32f10x_rcu.o(i.rcu_predv0_config), (32 bytes).
    Removing gd32f10x_rcu.o(i.rcu_rtc_clock_config), (24 bytes).
    Removing gd32f10x_rcu.o(i.rcu_system_clock_source_config), (24 bytes).
    Removing gd32f10x_rcu.o(i.rcu_system_clock_source_get), (16 bytes).
    Removing gd32f10x_rcu.o(i.rcu_usb_clock_config), (24 bytes).
    Removing gd32f10x_rtc.o(.rev16_text), (4 bytes).
    Removing gd32f10x_rtc.o(.revsh_text), (4 bytes).
    Removing gd32f10x_rtc.o(i.rtc_alarm_config), (32 bytes).
    Removing gd32f10x_rtc.o(i.rtc_configuration_mode_enter), (20 bytes).
    Removing gd32f10x_rtc.o(i.rtc_configuration_mode_exit), (20 bytes).
    Removing gd32f10x_rtc.o(i.rtc_counter_get), (20 bytes).
    Removing gd32f10x_rtc.o(i.rtc_counter_set), (32 bytes).
    Removing gd32f10x_rtc.o(i.rtc_divider_get), (24 bytes).
    Removing gd32f10x_rtc.o(i.rtc_flag_clear), (16 bytes).
    Removing gd32f10x_rtc.o(i.rtc_flag_get), (24 bytes).
    Removing gd32f10x_rtc.o(i.rtc_interrupt_disable), (16 bytes).
    Removing gd32f10x_rtc.o(i.rtc_interrupt_enable), (16 bytes).
    Removing gd32f10x_rtc.o(i.rtc_interrupt_flag_clear), (16 bytes).
    Removing gd32f10x_rtc.o(i.rtc_interrupt_flag_get), (24 bytes).
    Removing gd32f10x_rtc.o(i.rtc_lwoff_wait), (20 bytes).
    Removing gd32f10x_rtc.o(i.rtc_prescaler_set), (32 bytes).
    Removing gd32f10x_rtc.o(i.rtc_register_sync_wait), (32 bytes).
    Removing gd32f10x_sdio.o(.rev16_text), (4 bytes).
    Removing gd32f10x_sdio.o(.revsh_text), (4 bytes).
    Removing gd32f10x_sdio.o(i.sdio_bus_mode_set), (28 bytes).
    Removing gd32f10x_sdio.o(i.sdio_ceata_command_completion_disable), (20 bytes).
    Removing gd32f10x_sdio.o(i.sdio_ceata_command_completion_enable), (20 bytes).
    Removing gd32f10x_sdio.o(i.sdio_ceata_command_disable), (20 bytes).
    Removing gd32f10x_sdio.o(i.sdio_ceata_command_enable), (20 bytes).
    Removing gd32f10x_sdio.o(i.sdio_ceata_interrupt_disable), (20 bytes).
    Removing gd32f10x_sdio.o(i.sdio_ceata_interrupt_enable), (20 bytes).
    Removing gd32f10x_sdio.o(i.sdio_clock_config), (36 bytes).
    Removing gd32f10x_sdio.o(i.sdio_clock_disable), (20 bytes).
    Removing gd32f10x_sdio.o(i.sdio_clock_enable), (20 bytes).
    Removing gd32f10x_sdio.o(i.sdio_command_index_get), (12 bytes).
    Removing gd32f10x_sdio.o(i.sdio_command_response_config), (44 bytes).
    Removing gd32f10x_sdio.o(i.sdio_csm_disable), (20 bytes).
    Removing gd32f10x_sdio.o(i.sdio_csm_enable), (20 bytes).
    Removing gd32f10x_sdio.o(i.sdio_data_config), (52 bytes).
    Removing gd32f10x_sdio.o(i.sdio_data_counter_get), (12 bytes).
    Removing gd32f10x_sdio.o(i.sdio_data_read), (12 bytes).
    Removing gd32f10x_sdio.o(i.sdio_data_transfer_config), (28 bytes).
    Removing gd32f10x_sdio.o(i.sdio_data_write), (12 bytes).
    Removing gd32f10x_sdio.o(i.sdio_deinit), (28 bytes).
    Removing gd32f10x_sdio.o(i.sdio_dma_disable), (20 bytes).
    Removing gd32f10x_sdio.o(i.sdio_dma_enable), (20 bytes).
    Removing gd32f10x_sdio.o(i.sdio_dsm_disable), (20 bytes).
    Removing gd32f10x_sdio.o(i.sdio_dsm_enable), (20 bytes).
    Removing gd32f10x_sdio.o(i.sdio_fifo_counter_get), (12 bytes).
    Removing gd32f10x_sdio.o(i.sdio_flag_clear), (12 bytes).
    Removing gd32f10x_sdio.o(i.sdio_flag_get), (20 bytes).
    Removing gd32f10x_sdio.o(i.sdio_hardware_clock_disable), (20 bytes).
    Removing gd32f10x_sdio.o(i.sdio_hardware_clock_enable), (20 bytes).
    Removing gd32f10x_sdio.o(i.sdio_interrupt_disable), (16 bytes).
    Removing gd32f10x_sdio.o(i.sdio_interrupt_enable), (16 bytes).
    Removing gd32f10x_sdio.o(i.sdio_interrupt_flag_clear), (12 bytes).
    Removing gd32f10x_sdio.o(i.sdio_interrupt_flag_get), (24 bytes).
    Removing gd32f10x_sdio.o(i.sdio_operation_disable), (20 bytes).
    Removing gd32f10x_sdio.o(i.sdio_operation_enable), (20 bytes).
    Removing gd32f10x_sdio.o(i.sdio_power_state_get), (12 bytes).
    Removing gd32f10x_sdio.o(i.sdio_power_state_set), (12 bytes).
    Removing gd32f10x_sdio.o(i.sdio_readwait_disable), (20 bytes).
    Removing gd32f10x_sdio.o(i.sdio_readwait_enable), (20 bytes).
    Removing gd32f10x_sdio.o(i.sdio_readwait_type_set), (40 bytes).
    Removing gd32f10x_sdio.o(i.sdio_response_get), (56 bytes).
    Removing gd32f10x_sdio.o(i.sdio_stop_readwait_disable), (20 bytes).
    Removing gd32f10x_sdio.o(i.sdio_stop_readwait_enable), (20 bytes).
    Removing gd32f10x_sdio.o(i.sdio_suspend_disable), (20 bytes).
    Removing gd32f10x_sdio.o(i.sdio_suspend_enable), (20 bytes).
    Removing gd32f10x_sdio.o(i.sdio_wait_type_set), (28 bytes).
    Removing gd32f10x_spi.o(.rev16_text), (4 bytes).
    Removing gd32f10x_spi.o(.revsh_text), (4 bytes).
    Removing gd32f10x_spi.o(i.i2s_disable), (10 bytes).
    Removing gd32f10x_spi.o(i.i2s_enable), (10 bytes).
    Removing gd32f10x_spi.o(i.i2s_init), (28 bytes).
    Removing gd32f10x_spi.o(i.i2s_psc_config), (164 bytes).
    Removing gd32f10x_spi.o(i.spi_bidirectional_transfer_config), (26 bytes).
    Removing gd32f10x_spi.o(i.spi_crc_error_clear), (8 bytes).
    Removing gd32f10x_spi.o(i.spi_crc_get), (16 bytes).
    Removing gd32f10x_spi.o(i.spi_crc_next), (10 bytes).
    Removing gd32f10x_spi.o(i.spi_crc_off), (10 bytes).
    Removing gd32f10x_spi.o(i.spi_crc_on), (10 bytes).
    Removing gd32f10x_spi.o(i.spi_crc_polynomial_get), (8 bytes).
    Removing gd32f10x_spi.o(i.spi_crc_polynomial_set), (12 bytes).
    Removing gd32f10x_spi.o(i.spi_disable), (10 bytes).
    Removing gd32f10x_spi.o(i.spi_dma_disable), (22 bytes).
    Removing gd32f10x_spi.o(i.spi_dma_enable), (22 bytes).
    Removing gd32f10x_spi.o(i.spi_i2s_data_frame_format_config), (16 bytes).
    Removing gd32f10x_spi.o(i.spi_i2s_deinit), (88 bytes).
    Removing gd32f10x_spi.o(i.spi_i2s_interrupt_disable), (8 bytes).
    Removing gd32f10x_spi.o(i.spi_i2s_interrupt_enable), (8 bytes).
    Removing gd32f10x_spi.o(i.spi_i2s_interrupt_flag_get), (100 bytes).
    Removing gd32f10x_spi.o(i.spi_nss_internal_high), (10 bytes).
    Removing gd32f10x_spi.o(i.spi_nss_internal_low), (10 bytes).
    Removing gd32f10x_spi.o(i.spi_nss_output_disable), (10 bytes).
    Removing gd32f10x_spi.o(i.spi_nss_output_enable), (10 bytes).
    Removing gd32f10x_spi.o(i.spi_struct_para_init), (18 bytes).
    Removing gd32f10x_timer.o(.rev16_text), (4 bytes).
    Removing gd32f10x_timer.o(.revsh_text), (4 bytes).
    Removing gd32f10x_timer.o(i.timer_auto_reload_shadow_disable), (10 bytes).
    Removing gd32f10x_timer.o(i.timer_automatic_output_disable), (10 bytes).
    Removing gd32f10x_timer.o(i.timer_automatic_output_enable), (10 bytes).
    Removing gd32f10x_timer.o(i.timer_autoreload_value_config), (4 bytes).
    Removing gd32f10x_timer.o(i.timer_break_config), (30 bytes).
    Removing gd32f10x_timer.o(i.timer_break_disable), (10 bytes).
    Removing gd32f10x_timer.o(i.timer_break_enable), (10 bytes).
    Removing gd32f10x_timer.o(i.timer_break_struct_para_init), (18 bytes).
    Removing gd32f10x_timer.o(i.timer_channel_capture_value_register_read), (42 bytes).
    Removing gd32f10x_timer.o(i.timer_channel_complementary_output_polarity_config), (70 bytes).
    Removing gd32f10x_timer.o(i.timer_channel_complementary_output_state_config), (70 bytes).
    Removing gd32f10x_timer.o(i.timer_channel_control_shadow_config), (24 bytes).
    Removing gd32f10x_timer.o(i.timer_channel_control_shadow_update_config), (26 bytes).
    Removing gd32f10x_timer.o(i.timer_channel_dma_request_source_select), (26 bytes).
    Removing gd32f10x_timer.o(i.timer_channel_input_capture_prescaler_config), (90 bytes).
    Removing gd32f10x_timer.o(i.timer_channel_input_struct_para_init), (16 bytes).
    Removing gd32f10x_timer.o(i.timer_channel_output_clear_config), (90 bytes).
    Removing gd32f10x_timer.o(i.timer_channel_output_fast_config), (90 bytes).
    Removing gd32f10x_timer.o(i.timer_channel_output_polarity_config), (92 bytes).
    Removing gd32f10x_timer.o(i.timer_channel_output_state_config), (92 bytes).
    Removing gd32f10x_timer.o(i.timer_channel_output_struct_para_init), (16 bytes).
    Removing gd32f10x_timer.o(i.timer_counter_alignment), (16 bytes).
    Removing gd32f10x_timer.o(i.timer_counter_down_direction), (10 bytes).
    Removing gd32f10x_timer.o(i.timer_counter_read), (8 bytes).
    Removing gd32f10x_timer.o(i.timer_counter_up_direction), (10 bytes).
    Removing gd32f10x_timer.o(i.timer_disable), (10 bytes).
    Removing gd32f10x_timer.o(i.timer_dma_disable), (8 bytes).
    Removing gd32f10x_timer.o(i.timer_dma_enable), (8 bytes).
    Removing gd32f10x_timer.o(i.timer_dma_transfer_config), (24 bytes).
    Removing gd32f10x_timer.o(i.timer_event_software_generate), (8 bytes).
    Removing gd32f10x_timer.o(i.timer_external_clock_mode0_config), (40 bytes).
    Removing gd32f10x_timer.o(i.timer_external_clock_mode1_disable), (10 bytes).
    Removing gd32f10x_timer.o(i.timer_external_trigger_as_external_clock_config), (166 bytes).
    Removing gd32f10x_timer.o(i.timer_flag_get), (16 bytes).
    Removing gd32f10x_timer.o(i.timer_hall_mode_config), (26 bytes).
    Removing gd32f10x_timer.o(i.timer_input_capture_config), (326 bytes).
    Removing gd32f10x_timer.o(i.timer_input_pwm_capture_config), (356 bytes).
    Removing gd32f10x_timer.o(i.timer_internal_clock_config), (10 bytes).
    Removing gd32f10x_timer.o(i.timer_internal_trigger_as_external_clock_config), (32 bytes).
    Removing gd32f10x_timer.o(i.timer_interrupt_disable), (8 bytes).
    Removing gd32f10x_timer.o(i.timer_master_output_trigger_source_select), (16 bytes).
    Removing gd32f10x_timer.o(i.timer_prescaler_config), (16 bytes).
    Removing gd32f10x_timer.o(i.timer_prescaler_read), (10 bytes).
    Removing gd32f10x_timer.o(i.timer_primary_output_config), (24 bytes).
    Removing gd32f10x_timer.o(i.timer_quadrature_decoder_mode_config), (64 bytes).
    Removing gd32f10x_timer.o(i.timer_repetition_value_config), (4 bytes).
    Removing gd32f10x_timer.o(i.timer_single_pulse_mode_config), (26 bytes).
    Removing gd32f10x_timer.o(i.timer_update_event_disable), (10 bytes).
    Removing gd32f10x_timer.o(i.timer_update_event_enable), (10 bytes).
    Removing gd32f10x_timer.o(i.timer_update_source_config), (26 bytes).
    Removing gd32f10x_usart.o(.rev16_text), (4 bytes).
    Removing gd32f10x_usart.o(.revsh_text), (4 bytes).
    Removing gd32f10x_usart.o(i.usart_address_config), (20 bytes).
    Removing gd32f10x_usart.o(i.usart_disable), (10 bytes).
    Removing gd32f10x_usart.o(i.usart_dma_receive_config), (20 bytes).
    Removing gd32f10x_usart.o(i.usart_dma_transmit_config), (20 bytes).
    Removing gd32f10x_usart.o(i.usart_flag_clear), (18 bytes).
    Removing gd32f10x_usart.o(i.usart_guard_time_config), (24 bytes).
    Removing gd32f10x_usart.o(i.usart_halfduplex_disable), (10 bytes).
    Removing gd32f10x_usart.o(i.usart_halfduplex_enable), (10 bytes).
    Removing gd32f10x_usart.o(i.usart_irda_lowpower_config), (20 bytes).
    Removing gd32f10x_usart.o(i.usart_irda_mode_disable), (10 bytes).
    Removing gd32f10x_usart.o(i.usart_irda_mode_enable), (10 bytes).
    Removing gd32f10x_usart.o(i.usart_lin_break_detection_length_config), (20 bytes).
    Removing gd32f10x_usart.o(i.usart_lin_mode_disable), (10 bytes).
    Removing gd32f10x_usart.o(i.usart_lin_mode_enable), (10 bytes).
    Removing gd32f10x_usart.o(i.usart_mute_mode_disable), (10 bytes).
    Removing gd32f10x_usart.o(i.usart_mute_mode_enable), (10 bytes).
    Removing gd32f10x_usart.o(i.usart_mute_mode_wakeup_config), (16 bytes).
    Removing gd32f10x_usart.o(i.usart_prescaler_config), (16 bytes).
    Removing gd32f10x_usart.o(i.usart_send_break), (10 bytes).
    Removing gd32f10x_usart.o(i.usart_smartcard_mode_disable), (10 bytes).
    Removing gd32f10x_usart.o(i.usart_smartcard_mode_enable), (10 bytes).
    Removing gd32f10x_usart.o(i.usart_smartcard_mode_nack_disable), (10 bytes).
    Removing gd32f10x_usart.o(i.usart_smartcard_mode_nack_enable), (10 bytes).
    Removing gd32f10x_usart.o(i.usart_synchronous_clock_config), (34 bytes).
    Removing gd32f10x_usart.o(i.usart_synchronous_clock_disable), (10 bytes).
    Removing gd32f10x_usart.o(i.usart_synchronous_clock_enable), (10 bytes).
    Removing gd32f10x_wwdgt.o(.rev16_text), (4 bytes).
    Removing gd32f10x_wwdgt.o(.revsh_text), (4 bytes).
    Removing gd32f10x_wwdgt.o(i.wwdgt_config), (28 bytes).
    Removing gd32f10x_wwdgt.o(i.wwdgt_counter_update), (16 bytes).
    Removing gd32f10x_wwdgt.o(i.wwdgt_deinit), (20 bytes).
    Removing gd32f10x_wwdgt.o(i.wwdgt_enable), (20 bytes).
    Removing gd32f10x_wwdgt.o(i.wwdgt_flag_clear), (12 bytes).
    Removing gd32f10x_wwdgt.o(i.wwdgt_flag_get), (24 bytes).
    Removing gd32f10x_wwdgt.o(i.wwdgt_interrupt_enable), (20 bytes).
    Removing bsp_eeprom.o(.rev16_text), (4 bytes).
    Removing bsp_eeprom.o(.revsh_text), (4 bytes).
    Removing bsp_eeprom.o(i.set_eeprom), (136 bytes).
    Removing bsp_gpio.o(.rev16_text), (4 bytes).
    Removing bsp_gpio.o(.revsh_text), (4 bytes).
    Removing bsp_uart.o(.rev16_text), (4 bytes).
    Removing bsp_uart.o(.revsh_text), (4 bytes).
    Removing bsp_uart.o(i.UartSend), (74 bytes).
    Removing bsp_timer.o(.rev16_text), (4 bytes).
    Removing bsp_timer.o(.revsh_text), (4 bytes).
    Removing bsp_adc.o(.rev16_text), (4 bytes).
    Removing bsp_adc.o(.revsh_text), (4 bytes).
    Removing bsp_adc.o(i.Get_voltage), (348 bytes).
    Removing bsp_adc.o(.bss), (240 bytes).
    Removing bsp_adc.o(.data), (8 bytes).
    Removing bsp_rtc.o(.rev16_text), (4 bytes).
    Removing bsp_rtc.o(.revsh_text), (4 bytes).
    Removing bsp_pwm.o(.rev16_text), (4 bytes).
    Removing bsp_pwm.o(.revsh_text), (4 bytes).
    Removing bsp_key.o(.rev16_text), (4 bytes).
    Removing bsp_key.o(.revsh_text), (4 bytes).
    Removing bsp_key.o(i.bsp_ClearKey), (16 bytes).
    Removing bsp_lcd.o(.rev16_text), (4 bytes).
    Removing bsp_lcd.o(.revsh_text), (4 bytes).
    Removing bsp_lcd.o(i.LCD_Fill), (68 bytes).
    Removing bsp_lcd.o(i.LCD_write_data), (72 bytes).
    Removing gd32f10x_it.o(.rev16_text), (4 bytes).
    Removing gd32f10x_it.o(.revsh_text), (4 bytes).
    Removing main.o(.rev16_text), (4 bytes).
    Removing main.o(.revsh_text), (4 bytes).
    Removing main.o(.bss), (24 bytes).
    Removing sys.o(.rev16_text), (4 bytes).
    Removing sys.o(.revsh_text), (4 bytes).
    Removing sys.o(i.DataTofloat), (30 bytes).
    Removing sys.o(i.FloatToData), (30 bytes).
    Removing sys.o(i.HexToAscii), (62 bytes).
    Removing sys.o(i.StrTo64Int), (138 bytes).
    Removing sys.o(i.StrToFloat), (212 bytes).
    Removing sys.o(i.StrToInt), (84 bytes).
    Removing sys.o(i.StrToIntFix), (90 bytes).
    Removing sys.o(i.StrTodouble), (260 bytes).
    Removing sys.o(i.byte2_to_uint16), (38 bytes).
    Removing sys.o(i.byte4_to_uint32), (28 bytes).
    Removing sys.o(i.uint32_to_4byte), (28 bytes).
    Removing sys_config.o(.rev16_text), (4 bytes).
    Removing sys_config.o(.revsh_text), (4 bytes).
    Removing sys_config.o(i.getTaskTicks), (12 bytes).
    Removing sys_config.o(i.taskTickDiff), (12 bytes).
    Removing task_com.o(.rev16_text), (4 bytes).
    Removing task_com.o(.revsh_text), (4 bytes).
    Removing task_com.o(i.DebugReplyFramePacket), (10 bytes).
    Removing task_gui.o(.rev16_text), (4 bytes).
    Removing task_gui.o(.revsh_text), (4 bytes).
    Removing task_dose.o(.rev16_text), (4 bytes).
    Removing task_dose.o(.revsh_text), (4 bytes).
    Removing task_dose.o(i.chn_clac_init), (44 bytes).
    Removing task_dose.o(i.list_init), (16 bytes).
    Removing task_status.o(.rev16_text), (4 bytes).
    Removing task_status.o(.revsh_text), (4 bytes).
    Removing task_manage.o(.rev16_text), (4 bytes).
    Removing task_manage.o(.revsh_text), (4 bytes).
    Removing dose.o(.rev16_text), (4 bytes).
    Removing dose.o(.revsh_text), (4 bytes).
    Removing dose.o(i.Dose_Init), (64 bytes).
    Removing dose.o(i.Get_ins_cps), (20 bytes).
    Removing gui.o(i.GUI_SetChar5628), (260 bytes).
    Removing gui.o(i.GUI_SetChgPic), (112 bytes).
    Removing gui.o(i.GUI_SetPixel), (64 bytes).
    Removing gui.o(i.GUI_SetString5628), (52 bytes).
    Removing display.o(.rev16_text), (4 bytes).
    Removing display.o(.revsh_text), (4 bytes).
    Removing display.o(i.Display_Chg), (24 bytes).
    Removing display.o(i.Display_scaleBar), (436 bytes).

593 unused section(s) (total 22152 bytes) removed from the image.

==============================================================================

Image Symbol Table

    Local Symbols

    Symbol Name                              Value     Ov Type        Size  Object(Section)

    ../clib/angel/boardlib.s                 0x00000000   Number         0  boardinit1.o ABSOLUTE
    ../clib/angel/boardlib.s                 0x00000000   Number         0  boardinit2.o ABSOLUTE
    ../clib/angel/boardlib.s                 0x00000000   Number         0  boardinit3.o ABSOLUTE
    ../clib/angel/boardlib.s                 0x00000000   Number         0  boardshut.o ABSOLUTE
    ../clib/angel/dczerorl2.s                0x00000000   Number         0  __dczerorl2.o ABSOLUTE
    ../clib/angel/handlers.s                 0x00000000   Number         0  __scatter_zi.o ABSOLUTE
    ../clib/angel/kernel.s                   0x00000000   Number         0  __rtentry4.o ABSOLUTE
    ../clib/angel/kernel.s                   0x00000000   Number         0  __rtentry.o ABSOLUTE
    ../clib/angel/kernel.s                   0x00000000   Number         0  rtexit2.o ABSOLUTE
    ../clib/angel/kernel.s                   0x00000000   Number         0  __rtentry2.o ABSOLUTE
    ../clib/angel/kernel.s                   0x00000000   Number         0  rtexit.o ABSOLUTE
    ../clib/angel/rt.s                       0x00000000   Number         0  rt_locale_intlibspace.o ABSOLUTE
    ../clib/angel/rt.s                       0x00000000   Number         0  rt_errno_addr.o ABSOLUTE
    ../clib/angel/rt.s                       0x00000000   Number         0  rt_ctype_table.o ABSOLUTE
    ../clib/angel/rt.s                       0x00000000   Number         0  rt_errno_addr_intlibspace.o ABSOLUTE
    ../clib/angel/rt.s                       0x00000000   Number         0  rt_locale.o ABSOLUTE
    ../clib/angel/rt.s                       0x00000000   Number         0  rt_raise.o ABSOLUTE
    ../clib/angel/scatter.s                  0x00000000   Number         0  __scatter.o ABSOLUTE
    ../clib/angel/startup.s                  0x00000000   Number         0  __main.o ABSOLUTE
    ../clib/angel/sys.s                      0x00000000   Number         0  libspace.o ABSOLUTE
    ../clib/angel/sys.s                      0x00000000   Number         0  sys_stackheap_outer.o ABSOLUTE
    ../clib/angel/sys.s                      0x00000000   Number         0  indicate_semi.o ABSOLUTE
    ../clib/angel/sys.s                      0x00000000   Number         0  use_no_semi.o ABSOLUTE
    ../clib/angel/sysapp.c                   0x00000000   Number         0  sys_exit.o ABSOLUTE
    ../clib/angel/sysapp.c                   0x00000000   Number         0  sys_command.o ABSOLUTE
    ../clib/angel/sysapp.c                   0x00000000   Number         0  sys_wrch.o ABSOLUTE
    ../clib/armsys.c                         0x00000000   Number         0  argv_veneer.o ABSOLUTE
    ../clib/armsys.c                         0x00000000   Number         0  argv_veneer.o ABSOLUTE
    ../clib/armsys.c                         0x00000000   Number         0  no_argv.o ABSOLUTE
    ../clib/armsys.c                         0x00000000   Number         0  _get_argv_nomalloc.o ABSOLUTE
    ../clib/bigflt.c                         0x00000000   Number         0  bigflt0.o ABSOLUTE
    ../clib/btod.s                           0x00000000   Number         0  btod.o ABSOLUTE
    ../clib/ctype.c                          0x00000000   Number         0  isspace.o ABSOLUTE
    ../clib/fenv.c                           0x00000000   Number         0  _rserrno.o ABSOLUTE
    ../clib/heapalloc.c                      0x00000000   Number         0  hrguard.o ABSOLUTE
    ../clib/heapaux.c                        0x00000000   Number         0  heapauxi.o ABSOLUTE
    ../clib/libinit.s                        0x00000000   Number         0  libshutdown.o ABSOLUTE
    ../clib/libinit.s                        0x00000000   Number         0  libinit.o ABSOLUTE
    ../clib/libinit.s                        0x00000000   Number         0  libshutdown2.o ABSOLUTE
    ../clib/libinit.s                        0x00000000   Number         0  libinit2.o ABSOLUTE
    ../clib/locale.s                         0x00000000   Number         0  lc_numeric_c.o ABSOLUTE
    ../clib/locale.s                         0x00000000   Number         0  lc_ctype_c.o ABSOLUTE
    ../clib/longlong.s                       0x00000000   Number         0  llshl.o ABSOLUTE
    ../clib/longlong.s                       0x00000000   Number         0  lludiv10.o ABSOLUTE
    ../clib/memcpset.s                       0x00000000   Number         0  strcmpv7m.o ABSOLUTE
    ../clib/memcpset.s                       0x00000000   Number         0  rt_memcpy_v6.o ABSOLUTE
    ../clib/memcpset.s                       0x00000000   Number         0  rt_memcpy_w.o ABSOLUTE
    ../clib/memcpset.s                       0x00000000   Number         0  rt_memclr.o ABSOLUTE
    ../clib/memcpset.s                       0x00000000   Number         0  rt_memclr_w.o ABSOLUTE
    ../clib/misc.s                           0x00000000   Number         0  printf_stubs.o ABSOLUTE
    ../clib/printf.c                         0x00000000   Number         0  _printf_fp_infnan.o ABSOLUTE
    ../clib/printf.c                         0x00000000   Number         0  __printf.o ABSOLUTE
    ../clib/printf.c                         0x00000000   Number         0  _printf_intcommon.o ABSOLUTE
    ../clib/printf.c                         0x00000000   Number         0  _printf_fp_dec.o ABSOLUTE
    ../clib/printf.c                         0x00000000   Number         0  _printf_char_common.o ABSOLUTE
    ../clib/printf.c                         0x00000000   Number         0  __2sprintf.o ABSOLUTE
    ../clib/printf.c                         0x00000000   Number         0  noretval__2sprintf.o ABSOLUTE
    ../clib/printf.c                         0x00000000   Number         0  _sputc.o ABSOLUTE
    ../clib/printf.c                         0x00000000   Number         0  _printf_pad.o ABSOLUTE
    ../clib/printf.c                         0x00000000   Number         0  _printf_dec.o ABSOLUTE
    ../clib/printf.c                         0x00000000   Number         0  __printf_flags.o ABSOLUTE
    ../clib/printf.c                         0x00000000   Number         0  __printf_ss.o ABSOLUTE
    ../clib/printf.c                         0x00000000   Number         0  __printf_flags_ss.o ABSOLUTE
    ../clib/printf.c                         0x00000000   Number         0  __printf_wp.o ABSOLUTE
    ../clib/printf.c                         0x00000000   Number         0  __printf_flags_wp.o ABSOLUTE
    ../clib/printf.c                         0x00000000   Number         0  __printf_nopercent.o ABSOLUTE
    ../clib/printf.c                         0x00000000   Number         0  __printf_ss_wp.o ABSOLUTE
    ../clib/printf.c                         0x00000000   Number         0  __printf_flags_ss_wp.o ABSOLUTE
    ../clib/printf_percent.s                 0x00000000   Number         0  _printf_f.o ABSOLUTE
    ../clib/printf_percent.s                 0x00000000   Number         0  _printf_percent.o ABSOLUTE
    ../clib/printf_percent.s                 0x00000000   Number         0  _printf_d.o ABSOLUTE
    ../clib/printf_percent.s                 0x00000000   Number         0  _printf_percent_end.o ABSOLUTE
    ../clib/scanf.c                          0x00000000   Number         0  _sgetc.o ABSOLUTE
    ../clib/scanf.c                          0x00000000   Number         0  _scanf.o ABSOLUTE
    ../clib/scanf.c                          0x00000000   Number         0  _chval.o ABSOLUTE
    ../clib/scanf.c                          0x00000000   Number         0  scanf_infnan.o ABSOLUTE
    ../clib/scanf.c                          0x00000000   Number         0  __0sscanf.o ABSOLUTE
    ../clib/scanf.c                          0x00000000   Number         0  scanf_fp.o ABSOLUTE
    ../clib/scanf.c                          0x00000000   Number         0  scanf_hexfp.o ABSOLUTE
    ../clib/scanf.c                          0x00000000   Number         0  scanf_char.o ABSOLUTE
    ../clib/signal.c                         0x00000000   Number         0  defsig_stak_inner.o ABSOLUTE
    ../clib/signal.c                         0x00000000   Number         0  defsig_rtred_inner.o ABSOLUTE
    ../clib/signal.c                         0x00000000   Number         0  defsig_fpe_inner.o ABSOLUTE
    ../clib/signal.c                         0x00000000   Number         0  defsig_general.o ABSOLUTE
    ../clib/signal.c                         0x00000000   Number         0  __raise.o ABSOLUTE
    ../clib/signal.c                         0x00000000   Number         0  defsig_rtmem_inner.o ABSOLUTE
    ../clib/signal.c                         0x00000000   Number         0  defsig_exit.o ABSOLUTE
    ../clib/signal.c                         0x00000000   Number         0  defsig_rtmem_formal.o ABSOLUTE
    ../clib/signal.c                         0x00000000   Number         0  defsig_rtmem_outer.o ABSOLUTE
    ../clib/signal.c                         0x00000000   Number         0  defsig_abrt_inner.o ABSOLUTE
    ../clib/signal.c                         0x00000000   Number         0  defsig_other.o ABSOLUTE
    ../clib/signal.c                         0x00000000   Number         0  defsig_segv_inner.o ABSOLUTE
    ../clib/signal.c                         0x00000000   Number         0  defsig_cppl_inner.o ABSOLUTE
    ../clib/signal.c                         0x00000000   Number         0  defsig_pvfn_inner.o ABSOLUTE
    ../clib/signal.s                         0x00000000   Number         0  defsig.o ABSOLUTE
    ../clib/stdlib.c                         0x00000000   Number         0  exit.o ABSOLUTE
    ../clib/string.c                         0x00000000   Number         0  strchr.o ABSOLUTE
    ../clib/string.c                         0x00000000   Number         0  memcmp.o ABSOLUTE
    ../clib/string.c                         0x00000000   Number         0  strlen.o ABSOLUTE
    ../fplib/d2f.s                           0x00000000   Number         0  d2f.o ABSOLUTE
    ../fplib/daddsub.s                       0x00000000   Number         0  daddsub_clz.o ABSOLUTE
    ../fplib/dcheck1.s                       0x00000000   Number         0  dcheck1.o ABSOLUTE
    ../fplib/dcmpi.s                         0x00000000   Number         0  dcmpi.o ABSOLUTE
    ../fplib/ddiv.s                          0x00000000   Number         0  ddiv.o ABSOLUTE
    ../fplib/deqf.s                          0x00000000   Number         0  deqf.o ABSOLUTE
    ../fplib/dfixu.s                         0x00000000   Number         0  dfixu.o ABSOLUTE
    ../fplib/dflt.s                          0x00000000   Number         0  dflt_clz.o ABSOLUTE
    ../fplib/dleqf.s                         0x00000000   Number         0  dleqf.o ABSOLUTE
    ../fplib/dmul.s                          0x00000000   Number         0  dmul.o ABSOLUTE
    ../fplib/dnaninf.s                       0x00000000   Number         0  dnaninf.o ABSOLUTE
    ../fplib/dretinf.s                       0x00000000   Number         0  dretinf.o ABSOLUTE
    ../fplib/drleqf.s                        0x00000000   Number         0  drleqf.o ABSOLUTE
    ../fplib/f2d.s                           0x00000000   Number         0  f2d.o ABSOLUTE
    ../fplib/faddsub.s                       0x00000000   Number         0  faddsub_clz.o ABSOLUTE
    ../fplib/fcmpi.s                         0x00000000   Number         0  fcmpi.o ABSOLUTE
    ../fplib/fdiv.s                          0x00000000   Number         0  fdiv.o ABSOLUTE
    ../fplib/feqf.s                          0x00000000   Number         0  feqf.o ABSOLUTE
    ../fplib/ffixu.s                         0x00000000   Number         0  ffixu.o ABSOLUTE
    ../fplib/fflt.s                          0x00000000   Number         0  fflt_clz.o ABSOLUTE
    ../fplib/fleqf.s                         0x00000000   Number         0  fleqf.o ABSOLUTE
    ../fplib/fmul.s                          0x00000000   Number         0  fmul.o ABSOLUTE
    ../fplib/fnaninf.s                       0x00000000   Number         0  fnaninf.o ABSOLUTE
    ../fplib/fpconst.s                       0x00000000   Number         0  fpconst.o ABSOLUTE
    ../fplib/fpinit.s                        0x00000000   Number         0  fpinit.o ABSOLUTE
    ../fplib/fretinf.s                       0x00000000   Number         0  fretinf.o ABSOLUTE
    ../fplib/frleqf.s                        0x00000000   Number         0  frleqf.o ABSOLUTE
    ../fplib/istatus.s                       0x00000000   Number         0  istatus.o ABSOLUTE
    ../fplib/printf1.s                       0x00000000   Number         0  printf1.o ABSOLUTE
    ../fplib/retnan.s                        0x00000000   Number         0  retnan.o ABSOLUTE
    ../fplib/scalbn.s                        0x00000000   Number         0  scalbn.o ABSOLUTE
    ../fplib/scanf1.s                        0x00000000   Number         0  scanf1.o ABSOLUTE
    ../fplib/scanf2.s                        0x00000000   Number         0  scanf2.o ABSOLUTE
    ../fplib/scanf2a.s                       0x00000000   Number         0  scanf2a.o ABSOLUTE
    ../fplib/scanf2b.s                       0x00000000   Number         0  scanf2b.o ABSOLUTE
    ../fplib/trapv.s                         0x00000000   Number         0  trapv.o ABSOLUTE
    ../fplib/usenofp.s                       0x00000000   Number         0  usenofp.o ABSOLUTE
    ../mathlib/dunder.c                      0x00000000   Number         0  dunder.o ABSOLUTE
    ../mathlib/fpclassify.c                  0x00000000   Number         0  fpclassify.o ABSOLUTE
    ../mathlib/frexp.c                       0x00000000   Number         0  frexp.o ABSOLUTE
    ../mathlib/ldexp.c                       0x00000000   Number         0  ldexp_x.o ABSOLUTE
    ../mathlib/ldexp.c                       0x00000000   Number         0  ldexp.o ABSOLUTE
    ../mathlib/narrow.c                      0x00000000   Number         0  narrow.o ABSOLUTE
    ../mathlib/qnan.c                        0x00000000   Number         0  qnan.o ABSOLUTE
    ..\APP\Task_com.c                        0x00000000   Number         0  task_com.o ABSOLUTE
    ..\APP\Task_dose.c                       0x00000000   Number         0  task_dose.o ABSOLUTE
    ..\APP\Task_gui.c                        0x00000000   Number         0  task_gui.o ABSOLUTE
    ..\APP\Task_manage.c                     0x00000000   Number         0  task_manage.o ABSOLUTE
    ..\APP\Task_status.c                     0x00000000   Number         0  task_status.o ABSOLUTE
    ..\APP\dose.c                            0x00000000   Number         0  dose.o ABSOLUTE
    ..\BSP\bsp_adc.c                         0x00000000   Number         0  bsp_adc.o ABSOLUTE
    ..\BSP\bsp_eeprom.c                      0x00000000   Number         0  bsp_eeprom.o ABSOLUTE
    ..\BSP\bsp_gpio.c                        0x00000000   Number         0  bsp_gpio.o ABSOLUTE
    ..\BSP\bsp_key.c                         0x00000000   Number         0  bsp_key.o ABSOLUTE
    ..\BSP\bsp_lcd.c                         0x00000000   Number         0  bsp_lcd.o ABSOLUTE
    ..\BSP\bsp_pwm.c                         0x00000000   Number         0  bsp_pwm.o ABSOLUTE
    ..\BSP\bsp_rtc.c                         0x00000000   Number         0  bsp_rtc.o ABSOLUTE
    ..\BSP\bsp_timer.c                       0x00000000   Number         0  bsp_timer.o ABSOLUTE
    ..\BSP\bsp_uart.c                        0x00000000   Number         0  bsp_uart.o ABSOLUTE
    ..\CMSIS\startup_gd32f10x_hd.s           0x00000000   Number         0  startup_gd32f10x_hd.o ABSOLUTE
    ..\CMSIS\system_gd32f10x.c               0x00000000   Number         0  system_gd32f10x.o ABSOLUTE
    ..\GDLIB\Source\gd32f10x_adc.c           0x00000000   Number         0  gd32f10x_adc.o ABSOLUTE
    ..\GDLIB\Source\gd32f10x_bkp.c           0x00000000   Number         0  gd32f10x_bkp.o ABSOLUTE
    ..\GDLIB\Source\gd32f10x_can.c           0x00000000   Number         0  gd32f10x_can.o ABSOLUTE
    ..\GDLIB\Source\gd32f10x_crc.c           0x00000000   Number         0  gd32f10x_crc.o ABSOLUTE
    ..\GDLIB\Source\gd32f10x_dac.c           0x00000000   Number         0  gd32f10x_dac.o ABSOLUTE
    ..\GDLIB\Source\gd32f10x_dbg.c           0x00000000   Number         0  gd32f10x_dbg.o ABSOLUTE
    ..\GDLIB\Source\gd32f10x_dma.c           0x00000000   Number         0  gd32f10x_dma.o ABSOLUTE
    ..\GDLIB\Source\gd32f10x_enet.c          0x00000000   Number         0  gd32f10x_enet.o ABSOLUTE
    ..\GDLIB\Source\gd32f10x_exmc.c          0x00000000   Number         0  gd32f10x_exmc.o ABSOLUTE
    ..\GDLIB\Source\gd32f10x_exti.c          0x00000000   Number         0  gd32f10x_exti.o ABSOLUTE
    ..\GDLIB\Source\gd32f10x_fmc.c           0x00000000   Number         0  gd32f10x_fmc.o ABSOLUTE
    ..\GDLIB\Source\gd32f10x_fwdgt.c         0x00000000   Number         0  gd32f10x_fwdgt.o ABSOLUTE
    ..\GDLIB\Source\gd32f10x_gpio.c          0x00000000   Number         0  gd32f10x_gpio.o ABSOLUTE
    ..\GDLIB\Source\gd32f10x_i2c.c           0x00000000   Number         0  gd32f10x_i2c.o ABSOLUTE
    ..\GDLIB\Source\gd32f10x_misc.c          0x00000000   Number         0  gd32f10x_misc.o ABSOLUTE
    ..\GDLIB\Source\gd32f10x_pmu.c           0x00000000   Number         0  gd32f10x_pmu.o ABSOLUTE
    ..\GDLIB\Source\gd32f10x_rcu.c           0x00000000   Number         0  gd32f10x_rcu.o ABSOLUTE
    ..\GDLIB\Source\gd32f10x_rtc.c           0x00000000   Number         0  gd32f10x_rtc.o ABSOLUTE
    ..\GDLIB\Source\gd32f10x_sdio.c          0x00000000   Number         0  gd32f10x_sdio.o ABSOLUTE
    ..\GDLIB\Source\gd32f10x_spi.c           0x00000000   Number         0  gd32f10x_spi.o ABSOLUTE
    ..\GDLIB\Source\gd32f10x_timer.c         0x00000000   Number         0  gd32f10x_timer.o ABSOLUTE
    ..\GDLIB\Source\gd32f10x_usart.c         0x00000000   Number         0  gd32f10x_usart.o ABSOLUTE
    ..\GDLIB\Source\gd32f10x_wwdgt.c         0x00000000   Number         0  gd32f10x_wwdgt.o ABSOLUTE
    ..\GUI\display.c                         0x00000000   Number         0  display.o ABSOLUTE
    ..\GUI\gui.c                             0x00000000   Number         0  gui.o ABSOLUTE
    ..\USER\gd32f10x_it.c                    0x00000000   Number         0  gd32f10x_it.o ABSOLUTE
    ..\USER\main.c                           0x00000000   Number         0  main.o ABSOLUTE
    ..\USER\sys.c                            0x00000000   Number         0  sys.o ABSOLUTE
    ..\USER\sys_config.c                     0x00000000   Number         0  sys_config.o ABSOLUTE
    ..\\APP\\Task_com.c                      0x00000000   Number         0  task_com.o ABSOLUTE
    ..\\APP\\Task_dose.c                     0x00000000   Number         0  task_dose.o ABSOLUTE
    ..\\APP\\Task_gui.c                      0x00000000   Number         0  task_gui.o ABSOLUTE
    ..\\APP\\Task_manage.c                   0x00000000   Number         0  task_manage.o ABSOLUTE
    ..\\APP\\Task_status.c                   0x00000000   Number         0  task_status.o ABSOLUTE
    ..\\APP\\dose.c                          0x00000000   Number         0  dose.o ABSOLUTE
    ..\\BSP\\bsp_adc.c                       0x00000000   Number         0  bsp_adc.o ABSOLUTE
    ..\\BSP\\bsp_eeprom.c                    0x00000000   Number         0  bsp_eeprom.o ABSOLUTE
    ..\\BSP\\bsp_gpio.c                      0x00000000   Number         0  bsp_gpio.o ABSOLUTE
    ..\\BSP\\bsp_key.c                       0x00000000   Number         0  bsp_key.o ABSOLUTE
    ..\\BSP\\bsp_lcd.c                       0x00000000   Number         0  bsp_lcd.o ABSOLUTE
    ..\\BSP\\bsp_pwm.c                       0x00000000   Number         0  bsp_pwm.o ABSOLUTE
    ..\\BSP\\bsp_rtc.c                       0x00000000   Number         0  bsp_rtc.o ABSOLUTE
    ..\\BSP\\bsp_timer.c                     0x00000000   Number         0  bsp_timer.o ABSOLUTE
    ..\\BSP\\bsp_uart.c                      0x00000000   Number         0  bsp_uart.o ABSOLUTE
    ..\\CMSIS\\system_gd32f10x.c             0x00000000   Number         0  system_gd32f10x.o ABSOLUTE
    ..\\GDLIB\\Source\\gd32f10x_adc.c        0x00000000   Number         0  gd32f10x_adc.o ABSOLUTE
    ..\\GDLIB\\Source\\gd32f10x_bkp.c        0x00000000   Number         0  gd32f10x_bkp.o ABSOLUTE
    ..\\GDLIB\\Source\\gd32f10x_can.c        0x00000000   Number         0  gd32f10x_can.o ABSOLUTE
    ..\\GDLIB\\Source\\gd32f10x_crc.c        0x00000000   Number         0  gd32f10x_crc.o ABSOLUTE
    ..\\GDLIB\\Source\\gd32f10x_dac.c        0x00000000   Number         0  gd32f10x_dac.o ABSOLUTE
    ..\\GDLIB\\Source\\gd32f10x_dbg.c        0x00000000   Number         0  gd32f10x_dbg.o ABSOLUTE
    ..\\GDLIB\\Source\\gd32f10x_dma.c        0x00000000   Number         0  gd32f10x_dma.o ABSOLUTE
    ..\\GDLIB\\Source\\gd32f10x_enet.c       0x00000000   Number         0  gd32f10x_enet.o ABSOLUTE
    ..\\GDLIB\\Source\\gd32f10x_exmc.c       0x00000000   Number         0  gd32f10x_exmc.o ABSOLUTE
    ..\\GDLIB\\Source\\gd32f10x_exti.c       0x00000000   Number         0  gd32f10x_exti.o ABSOLUTE
    ..\\GDLIB\\Source\\gd32f10x_fmc.c        0x00000000   Number         0  gd32f10x_fmc.o ABSOLUTE
    ..\\GDLIB\\Source\\gd32f10x_fwdgt.c      0x00000000   Number         0  gd32f10x_fwdgt.o ABSOLUTE
    ..\\GDLIB\\Source\\gd32f10x_gpio.c       0x00000000   Number         0  gd32f10x_gpio.o ABSOLUTE
    ..\\GDLIB\\Source\\gd32f10x_i2c.c        0x00000000   Number         0  gd32f10x_i2c.o ABSOLUTE
    ..\\GDLIB\\Source\\gd32f10x_misc.c       0x00000000   Number         0  gd32f10x_misc.o ABSOLUTE
    ..\\GDLIB\\Source\\gd32f10x_pmu.c        0x00000000   Number         0  gd32f10x_pmu.o ABSOLUTE
    ..\\GDLIB\\Source\\gd32f10x_rcu.c        0x00000000   Number         0  gd32f10x_rcu.o ABSOLUTE
    ..\\GDLIB\\Source\\gd32f10x_rtc.c        0x00000000   Number         0  gd32f10x_rtc.o ABSOLUTE
    ..\\GDLIB\\Source\\gd32f10x_sdio.c       0x00000000   Number         0  gd32f10x_sdio.o ABSOLUTE
    ..\\GDLIB\\Source\\gd32f10x_spi.c        0x00000000   Number         0  gd32f10x_spi.o ABSOLUTE
    ..\\GDLIB\\Source\\gd32f10x_timer.c      0x00000000   Number         0  gd32f10x_timer.o ABSOLUTE
    ..\\GDLIB\\Source\\gd32f10x_usart.c      0x00000000   Number         0  gd32f10x_usart.o ABSOLUTE
    ..\\GDLIB\\Source\\gd32f10x_wwdgt.c      0x00000000   Number         0  gd32f10x_wwdgt.o ABSOLUTE
    ..\\GUI\\display.c                       0x00000000   Number         0  display.o ABSOLUTE
    ..\\USER\\gd32f10x_it.c                  0x00000000   Number         0  gd32f10x_it.o ABSOLUTE
    ..\\USER\\main.c                         0x00000000   Number         0  main.o ABSOLUTE
    ..\\USER\\sys.c                          0x00000000   Number         0  sys.o ABSOLUTE
    ..\\USER\\sys_config.c                   0x00000000   Number         0  sys_config.o ABSOLUTE
    dc.s                                     0x00000000   Number         0  dc.o ABSOLUTE
    RESET                                    0x08000000   Section      304  startup_gd32f10x_hd.o(RESET)
    !!!main                                  0x08000130   Section        8  __main.o(!!!main)
    !!!scatter                               0x08000138   Section       52  __scatter.o(!!!scatter)
    !!dczerorl2                              0x0800016c   Section       90  __dczerorl2.o(!!dczerorl2)
    !!handler_zi                             0x080001c8   Section       28  __scatter_zi.o(!!handler_zi)
    .ARM.Collect$$_printf_percent$$00000000  0x080001e4   Section        0  _printf_percent.o(.ARM.Collect$$_printf_percent$$00000000)
    .ARM.Collect$$_printf_percent$$00000003  0x080001e4   Section        6  _printf_f.o(.ARM.Collect$$_printf_percent$$00000003)
    .ARM.Collect$$_printf_percent$$00000009  0x080001ea   Section        6  _printf_d.o(.ARM.Collect$$_printf_percent$$00000009)
    .ARM.Collect$$_printf_percent$$00000017  0x080001f0   Section        4  _printf_percent_end.o(.ARM.Collect$$_printf_percent$$00000017)
    .ARM.Collect$$libinit$$00000000          0x080001f4   Section        2  libinit.o(.ARM.Collect$$libinit$$00000000)
    .ARM.Collect$$libinit$$00000002          0x080001f6   Section        0  libinit2.o(.ARM.Collect$$libinit$$00000002)
    .ARM.Collect$$libinit$$00000004          0x080001f6   Section        0  libinit2.o(.ARM.Collect$$libinit$$00000004)
    .ARM.Collect$$libinit$$0000000A          0x080001f6   Section        0  libinit2.o(.ARM.Collect$$libinit$$0000000A)
    .ARM.Collect$$libinit$$0000000C          0x080001f6   Section        0  libinit2.o(.ARM.Collect$$libinit$$0000000C)
    .ARM.Collect$$libinit$$0000000E          0x080001f6   Section        0  libinit2.o(.ARM.Collect$$libinit$$0000000E)
    .ARM.Collect$$libinit$$0000000F          0x080001f6   Section        6  libinit2.o(.ARM.Collect$$libinit$$0000000F)
    .ARM.Collect$$libinit$$00000011          0x080001fc   Section        0  libinit2.o(.ARM.Collect$$libinit$$00000011)
    .ARM.Collect$$libinit$$00000012          0x080001fc   Section       12  libinit2.o(.ARM.Collect$$libinit$$00000012)
    .ARM.Collect$$libinit$$00000013          0x08000208   Section        0  libinit2.o(.ARM.Collect$$libinit$$00000013)
    .ARM.Collect$$libinit$$00000015          0x08000208   Section        0  libinit2.o(.ARM.Collect$$libinit$$00000015)
    .ARM.Collect$$libinit$$00000016          0x08000208   Section       10  libinit2.o(.ARM.Collect$$libinit$$00000016)
    .ARM.Collect$$libinit$$00000017          0x08000212   Section        0  libinit2.o(.ARM.Collect$$libinit$$00000017)
    .ARM.Collect$$libinit$$00000019          0x08000212   Section        0  libinit2.o(.ARM.Collect$$libinit$$00000019)
    .ARM.Collect$$libinit$$0000001B          0x08000212   Section        0  libinit2.o(.ARM.Collect$$libinit$$0000001B)
    .ARM.Collect$$libinit$$0000001D          0x08000212   Section        0  libinit2.o(.ARM.Collect$$libinit$$0000001D)
    .ARM.Collect$$libinit$$0000001F          0x08000212   Section        0  libinit2.o(.ARM.Collect$$libinit$$0000001F)
    .ARM.Collect$$libinit$$00000021          0x08000212   Section        0  libinit2.o(.ARM.Collect$$libinit$$00000021)
    .ARM.Collect$$libinit$$00000023          0x08000212   Section        0  libinit2.o(.ARM.Collect$$libinit$$00000023)
    .ARM.Collect$$libinit$$00000025          0x08000212   Section        0  libinit2.o(.ARM.Collect$$libinit$$00000025)
    .ARM.Collect$$libinit$$0000002C          0x08000212   Section        0  libinit2.o(.ARM.Collect$$libinit$$0000002C)
    .ARM.Collect$$libinit$$0000002E          0x08000212   Section        0  libinit2.o(.ARM.Collect$$libinit$$0000002E)
    .ARM.Collect$$libinit$$00000030          0x08000212   Section        0  libinit2.o(.ARM.Collect$$libinit$$00000030)
    .ARM.Collect$$libinit$$00000032          0x08000212   Section        0  libinit2.o(.ARM.Collect$$libinit$$00000032)
    .ARM.Collect$$libinit$$00000033          0x08000212   Section        2  libinit2.o(.ARM.Collect$$libinit$$00000033)
    .ARM.Collect$$libshutdown$$00000000      0x08000214   Section        2  libshutdown.o(.ARM.Collect$$libshutdown$$00000000)
    .ARM.Collect$$libshutdown$$00000002      0x08000216   Section        0  libshutdown2.o(.ARM.Collect$$libshutdown$$00000002)
    .ARM.Collect$$libshutdown$$00000004      0x08000216   Section        0  libshutdown2.o(.ARM.Collect$$libshutdown$$00000004)
    .ARM.Collect$$libshutdown$$00000006      0x08000216   Section        0  libshutdown2.o(.ARM.Collect$$libshutdown$$00000006)
    .ARM.Collect$$libshutdown$$00000009      0x08000216   Section        0  libshutdown2.o(.ARM.Collect$$libshutdown$$00000009)
    .ARM.Collect$$libshutdown$$0000000C      0x08000216   Section        0  libshutdown2.o(.ARM.Collect$$libshutdown$$0000000C)
    .ARM.Collect$$libshutdown$$0000000E      0x08000216   Section        0  libshutdown2.o(.ARM.Collect$$libshutdown$$0000000E)
    .ARM.Collect$$libshutdown$$00000011      0x08000216   Section        0  libshutdown2.o(.ARM.Collect$$libshutdown$$00000011)
    .ARM.Collect$$libshutdown$$00000012      0x08000216   Section        2  libshutdown2.o(.ARM.Collect$$libshutdown$$00000012)
    .ARM.Collect$$rtentry$$00000000          0x08000218   Section        0  __rtentry.o(.ARM.Collect$$rtentry$$00000000)
    .ARM.Collect$$rtentry$$00000002          0x08000218   Section        0  __rtentry2.o(.ARM.Collect$$rtentry$$00000002)
    .ARM.Collect$$rtentry$$00000004          0x08000218   Section        6  __rtentry4.o(.ARM.Collect$$rtentry$$00000004)
    .ARM.Collect$$rtentry$$00000009          0x0800021e   Section        0  __rtentry2.o(.ARM.Collect$$rtentry$$00000009)
    .ARM.Collect$$rtentry$$0000000A          0x0800021e   Section        4  __rtentry2.o(.ARM.Collect$$rtentry$$0000000A)
    .ARM.Collect$$rtentry$$0000000C          0x08000222   Section        0  __rtentry2.o(.ARM.Collect$$rtentry$$0000000C)
    .ARM.Collect$$rtentry$$0000000D          0x08000222   Section        8  __rtentry2.o(.ARM.Collect$$rtentry$$0000000D)
    .ARM.Collect$$rtexit$$00000000           0x0800022a   Section        2  rtexit.o(.ARM.Collect$$rtexit$$00000000)
    .ARM.Collect$$rtexit$$00000002           0x0800022c   Section        0  rtexit2.o(.ARM.Collect$$rtexit$$00000002)
    .ARM.Collect$$rtexit$$00000003           0x0800022c   Section        4  rtexit2.o(.ARM.Collect$$rtexit$$00000003)
    .ARM.Collect$$rtexit$$00000004           0x08000230   Section        6  rtexit2.o(.ARM.Collect$$rtexit$$00000004)
    .text                                    0x08000238   Section       64  startup_gd32f10x_hd.o(.text)
    .text                                    0x08000278   Section        0  noretval__2sprintf.o(.text)
    .text                                    0x080002a0   Section        0  _printf_pad.o(.text)
    .text                                    0x080002f0   Section        0  _printf_dec.o(.text)
    .text                                    0x08000368   Section        0  __printf_flags_wp.o(.text)
    .text                                    0x080004a0   Section        0  __0sscanf.o(.text)
    .text                                    0x080004dc   Section        0  memcmp.o(.text)
    .text                                    0x08000534   Section        0  strlen.o(.text)
    .text                                    0x08000572   Section      138  rt_memcpy_v6.o(.text)
    .text                                    0x080005fc   Section      100  rt_memcpy_w.o(.text)
    .text                                    0x08000660   Section       68  rt_memclr.o(.text)
    .text                                    0x080006a4   Section       78  rt_memclr_w.o(.text)
    .text                                    0x080006f2   Section        0  heapauxi.o(.text)
    .text                                    0x080006f8   Section        0  _printf_intcommon.o(.text)
    .text                                    0x080007aa   Section        0  _printf_fp_dec.o(.text)
    _fp_digits                               0x080007ad   Thumb Code   432  _printf_fp_dec.o(.text)
    .text                                    0x08000bc8   Section        0  _printf_char_common.o(.text)
    _printf_input_char                       0x08000bc9   Thumb Code    10  _printf_char_common.o(.text)
    .text                                    0x08000bf8   Section        0  _sputc.o(.text)
    .text                                    0x08000c04   Section        0  scanf_fp.o(.text)
    _fp_value                                0x08000c05   Thumb Code   588  scanf_fp.o(.text)
    .text                                    0x080010fc   Section        0  scanf_char.o(.text)
    _scanf_char_input                        0x080010fd   Thumb Code    12  scanf_char.o(.text)
    .text                                    0x08001128   Section        0  _sgetc.o(.text)
    .text                                    0x08001168   Section        8  rt_locale_intlibspace.o(.text)
    .text                                    0x08001170   Section        8  rt_errno_addr_intlibspace.o(.text)
    .text                                    0x08001178   Section      138  lludiv10.o(.text)
    .text                                    0x08001202   Section        0  isspace.o(.text)
    .text                                    0x08001214   Section        0  _printf_fp_infnan.o(.text)
    .text                                    0x08001294   Section        0  _scanf.o(.text)
    .text                                    0x08001608   Section        0  bigflt0.o(.text)
    .text                                    0x080016ec   Section        8  libspace.o(.text)
    .text                                    0x080016f4   Section       74  sys_stackheap_outer.o(.text)
    .text                                    0x08001740   Section       16  rt_ctype_table.o(.text)
    .text                                    0x08001750   Section        0  _rserrno.o(.text)
    .text                                    0x08001768   Section        0  scanf_hexfp.o(.text)
    .text                                    0x08001a88   Section        0  scanf_infnan.o(.text)
    .text                                    0x08001bbc   Section        0  exit.o(.text)
    .text                                    0x08001bd0   Section      128  strcmpv7m.o(.text)
    .text                                    0x08001c50   Section       38  llshl.o(.text)
    .text                                    0x08001c76   Section        0  _chval.o(.text)
    .text                                    0x08001c94   Section        0  sys_exit.o(.text)
    .text                                    0x08001ca0   Section        2  use_no_semi.o(.text)
    .text                                    0x08001ca2   Section        0  indicate_semi.o(.text)
    CL$$btod_d2e                             0x08001ca2   Section       62  btod.o(CL$$btod_d2e)
    CL$$btod_d2e_denorm_low                  0x08001ce0   Section       70  btod.o(CL$$btod_d2e_denorm_low)
    CL$$btod_d2e_norm_op1                    0x08001d26   Section       96  btod.o(CL$$btod_d2e_norm_op1)
    CL$$btod_div_common                      0x08001d86   Section      824  btod.o(CL$$btod_div_common)
    CL$$btod_e2d                             0x080020c0   Section      132  btod.o(CL$$btod_e2d)
    CL$$btod_e2e                             0x08002144   Section      220  btod.o(CL$$btod_e2e)
    CL$$btod_ediv                            0x08002220   Section       42  btod.o(CL$$btod_ediv)
    CL$$btod_edivd                           0x0800224a   Section       42  btod.o(CL$$btod_edivd)
    CL$$btod_emul                            0x08002274   Section       42  btod.o(CL$$btod_emul)
    CL$$btod_emuld                           0x0800229e   Section       42  btod.o(CL$$btod_emuld)
    CL$$btod_mult_common                     0x080022c8   Section      580  btod.o(CL$$btod_mult_common)
    i.ADC_GetVolPer                          0x0800250c   Section        0  bsp_adc.o(i.ADC_GetVolPer)
    i.Adc_Init                               0x0800254c   Section        0  bsp_adc.o(i.Adc_Init)
    Adc_Init                                 0x0800254d   Thumb Code   130  bsp_adc.o(i.Adc_Init)
    i.BEEP_SetState                          0x080025d4   Section        0  bsp_gpio.o(i.BEEP_SetState)
    i.BSP_ADC_Init                           0x080025f0   Section        0  bsp_adc.o(i.BSP_ADC_Init)
    i.BSP_EEPROM_Init                        0x080025fc   Section        0  bsp_eeprom.o(i.BSP_EEPROM_Init)
    i.BSP_GPIO_Init                          0x08002620   Section        0  bsp_gpio.o(i.BSP_GPIO_Init)
    i.BSP_Init                               0x08002728   Section        0  main.o(i.BSP_Init)
    i.BSP_Key_Init                           0x08002758   Section        0  bsp_key.o(i.BSP_Key_Init)
    i.BSP_PWM_Init                           0x080027a8   Section        0  bsp_pwm.o(i.BSP_PWM_Init)
    i.BSP_RTC_Init                           0x08002854   Section        0  bsp_rtc.o(i.BSP_RTC_Init)
    i.BSP_TIM_Init                           0x08002894   Section        0  bsp_timer.o(i.BSP_TIM_Init)
    i.BSP_Uart_Init                          0x080028a4   Section        0  bsp_uart.o(i.BSP_Uart_Init)
    i.BeepStateProcess                       0x08002a14   Section        0  task_status.o(i.BeepStateProcess)
    i.BubbleSort                             0x08002ad4   Section        0  task_dose.o(i.BubbleSort)
    i.BusFault_Handler                       0x08002b14   Section        0  gd32f10x_it.o(i.BusFault_Handler)
    i.Byte_BCDToBin                          0x08002b18   Section        0  sys.o(i.Byte_BCDToBin)
    i.Byte_BinToBCD                          0x08002b2c   Section        0  sys.o(i.Byte_BinToBCD)
    i.CHG_GetChgState                        0x08002b4c   Section        0  bsp_gpio.o(i.CHG_GetChgState)
    i.CHG_SetChg                             0x08002bbc   Section        0  bsp_gpio.o(i.CHG_SetChg)
    i.CHG_plugCheck                          0x08002bd8   Section        0  bsp_gpio.o(i.CHG_plugCheck)
    i.CalcDose                               0x08002be8   Section        0  dose.o(i.CalcDose)
    i.ChgStateProcess                        0x08002c28   Section        0  task_status.o(i.ChgStateProcess)
    i.DebugDataParse                         0x08002c7c   Section        0  task_com.o(i.DebugDataParse)
    i.DebugMon_Handler                       0x08002c9c   Section        0  gd32f10x_it.o(i.DebugMon_Handler)
    i.DetectoCom                             0x08002ca0   Section        0  task_com.o(i.DetectoCom)
    i.Display_CNT                            0x08002d74   Section        0  display.o(i.Display_CNT)
    i.Display_ProgressBar                    0x08002db8   Section        0  display.o(i.Display_ProgressBar)
    i.Display_bat                            0x08002e2c   Section        0  display.o(i.Display_bat)
    i.Display_brightness                     0x08002e5c   Section        0  display.o(i.Display_brightness)
    i.Display_dose                           0x08002ec4   Section        0  display.o(i.Display_dose)
    i.Display_doseVal                        0x08002fc8   Section        0  display.o(i.Display_doseVal)
    i.Display_setDeadtime                    0x08003154   Section        0  display.o(i.Display_setDeadtime)
    i.Display_setDtFactor                    0x08003246   Section        0  display.o(i.Display_setDtFactor)
    i.Display_setFactor                      0x080032ea   Section        0  display.o(i.Display_setFactor)
    i.Display_setWarnVal                     0x08003360   Section        0  display.o(i.Display_setWarnVal)
    i.Display_statusBar                      0x080034b0   Section        0  display.o(i.Display_statusBar)
    i.Display_unitParam                      0x08003504   Section        0  display.o(i.Display_unitParam)
    i.EE_Ack                                 0x08003570   Section        0  bsp_eeprom.o(i.EE_Ack)
    i.EE_Delay                               0x080035a8   Section        0  bsp_eeprom.o(i.EE_Delay)
    EE_Delay                                 0x080035a9   Thumb Code    10  bsp_eeprom.o(i.EE_Delay)
    i.EE_NAck                                0x080035b4   Section        0  bsp_eeprom.o(i.EE_NAck)
    i.EE_ReadByte                            0x080035e4   Section        0  bsp_eeprom.o(i.EE_ReadByte)
    i.EE_SendByte                            0x0800362c   Section        0  bsp_eeprom.o(i.EE_SendByte)
    i.EE_Start                               0x08003688   Section        0  bsp_eeprom.o(i.EE_Start)
    i.EE_Stop                                0x080036bc   Section        0  bsp_eeprom.o(i.EE_Stop)
    i.EE_WaitAck                             0x080036e4   Section        0  bsp_eeprom.o(i.EE_WaitAck)
    i.ExtDoseCalc                            0x08003728   Section        0  task_dose.o(i.ExtDoseCalc)
    i.GUI_Refresh                            0x08003894   Section        0  gui.o(i.GUI_Refresh)
    i.GUI_SetBat                             0x080038ac   Section        0  gui.o(i.GUI_SetBat)
    i.GUI_SetChar1608                        0x080039b8   Section        0  gui.o(i.GUI_SetChar1608)
    i.GUI_SetChar1616                        0x08003ac0   Section        0  gui.o(i.GUI_SetChar1616)
    i.GUI_SetChar2412                        0x08003b8c   Section        0  gui.o(i.GUI_SetChar2412)
    i.GUI_SetChar2424                        0x08003c94   Section        0  gui.o(i.GUI_SetChar2424)
    i.GUI_SetChar3216                        0x08003d60   Section        0  gui.o(i.GUI_SetChar3216)
    i.GUI_SetChar4824                        0x08003e68   Section        0  gui.o(i.GUI_SetChar4824)
    i.GUI_SetFillRect                        0x08003f6c   Section        0  gui.o(i.GUI_SetFillRect)
    i.GUI_SetLine                            0x08003f98   Section        0  gui.o(i.GUI_SetLine)
    i.GUI_SetRect                            0x08004104   Section        0  gui.o(i.GUI_SetRect)
    i.GUI_SetString1608                      0x08004146   Section        0  gui.o(i.GUI_SetString1608)
    i.GUI_SetString1616                      0x0800417a   Section        0  gui.o(i.GUI_SetString1616)
    i.GUI_SetString2412                      0x080041cc   Section        0  gui.o(i.GUI_SetString2412)
    i.GUI_SetString2424                      0x08004200   Section        0  gui.o(i.GUI_SetString2424)
    i.GUI_SetString3216                      0x08004252   Section        0  gui.o(i.GUI_SetString3216)
    i.GUI_SetString4824                      0x08004286   Section        0  gui.o(i.GUI_SetString4824)
    i.GetAdcVal                              0x080042bc   Section        0  bsp_adc.o(i.GetAdcVal)
    i.GetChgState                            0x080042e0   Section        0  task_status.o(i.GetChgState)
    i.GetDoseUnit                            0x080042ec   Section        0  display.o(i.GetDoseUnit)
    i.Get_BatValueSOC                        0x08004308   Section        0  bsp_adc.o(i.Get_BatValueSOC)
    i.Get_RTC_Time                           0x0800443c   Section        0  bsp_rtc.o(i.Get_RTC_Time)
    i.Gpio_Init                              0x08004494   Section        0  bsp_adc.o(i.Gpio_Init)
    Gpio_Init                                0x08004495   Thumb Code    24  bsp_adc.o(i.Gpio_Init)
    i.HMI_start                              0x080044b0   Section        0  task_gui.o(i.HMI_start)
    i.HZ16_to_index                          0x080044e4   Section        0  gui.o(i.HZ16_to_index)
    i.HZ24_to_index                          0x0800484c   Section        0  gui.o(i.HZ24_to_index)
    i.HardFault_Handler                      0x08004ae6   Section        0  gd32f10x_it.o(i.HardFault_Handler)
    i.IntDoseCalc                            0x08004aec   Section        0  task_dose.o(i.IntDoseCalc)
    i.KeyGetState                            0x08004bd8   Section        0  bsp_key.o(i.KeyGetState)
    i.LCD_FillData                           0x08004be4   Section        0  bsp_lcd.o(i.LCD_FillData)
    i.LCD_Init                               0x08004c14   Section        0  bsp_lcd.o(i.LCD_Init)
    i.LCD_clear                              0x08004dca   Section        0  bsp_lcd.o(i.LCD_clear)
    i.LCD_delay                              0x08004e04   Section        0  bsp_lcd.o(i.LCD_delay)
    i.LCD_reset                              0x08004e1c   Section        0  bsp_lcd.o(i.LCD_reset)
    i.LCD_set_window                         0x08004e4c   Section        0  bsp_lcd.o(i.LCD_set_window)
    i.LCD_write                              0x08004e94   Section        0  bsp_lcd.o(i.LCD_write)
    i.LED_SetState                           0x08004ec8   Section        0  bsp_gpio.o(i.LED_SetState)
    i.LedStateProcess                        0x08004f10   Section        0  task_status.o(i.LedStateProcess)
    i.MemManage_Handler                      0x08004f74   Section        0  gd32f10x_it.o(i.MemManage_Handler)
    i.NMI_Handler                            0x08004f78   Section        0  gd32f10x_it.o(i.NMI_Handler)
    i.NVIC_SetPriority                       0x08004f7c   Section        0  sys_config.o(i.NVIC_SetPriority)
    NVIC_SetPriority                         0x08004f7d   Thumb Code    32  sys_config.o(i.NVIC_SetPriority)
    i.PWR_shutdown                           0x08004fa4   Section        0  bsp_gpio.o(i.PWR_shutdown)
    i.PulseCntGet                            0x08004fb4   Section        0  bsp_timer.o(i.PulseCntGet)
    i.RTC_Ack                                0x0800500c   Section        0  bsp_rtc.o(i.RTC_Ack)
    i.RTC_Delay                              0x0800503c   Section        0  bsp_rtc.o(i.RTC_Delay)
    RTC_Delay                                0x0800503d   Thumb Code    10  bsp_rtc.o(i.RTC_Delay)
    i.RTC_NAck                               0x08005048   Section        0  bsp_rtc.o(i.RTC_NAck)
    i.RTC_Read                               0x08005070   Section        0  bsp_rtc.o(i.RTC_Read)
    i.RTC_ReadByte                           0x080050d4   Section        0  bsp_rtc.o(i.RTC_ReadByte)
    i.RTC_SendByte                           0x08005118   Section        0  bsp_rtc.o(i.RTC_SendByte)
    i.RTC_Start                              0x0800516c   Section        0  bsp_rtc.o(i.RTC_Start)
    i.RTC_Stop                               0x0800519c   Section        0  bsp_rtc.o(i.RTC_Stop)
    i.RTC_WaitAck                            0x080051c0   Section        0  bsp_rtc.o(i.RTC_WaitAck)
    i.RTC_Write                              0x080051fc   Section        0  bsp_rtc.o(i.RTC_Write)
    i.SYS_Param_Init                         0x0800524c   Section        0  task_manage.o(i.SYS_Param_Init)
    i.SetLcdBacklight                        0x08005404   Section        0  bsp_pwm.o(i.SetLcdBacklight)
    i.Set_RTC_Time                           0x08005414   Section        0  bsp_rtc.o(i.Set_RTC_Time)
    i.SysTick_Handler                        0x08005472   Section        0  gd32f10x_it.o(i.SysTick_Handler)
    i.SystemInit                             0x0800547c   Section        0  system_gd32f10x.o(i.SystemInit)
    i.TIM0_Init                              0x08005550   Section        0  bsp_timer.o(i.TIM0_Init)
    i.TIM1_Init                              0x080055f4   Section        0  bsp_timer.o(i.TIM1_Init)
    i.TIM5_Init                              0x080056b4   Section        0  bsp_timer.o(i.TIM5_Init)
    i.TIMER0_UP_IRQHandler                   0x08005718   Section        0  bsp_timer.o(i.TIMER0_UP_IRQHandler)
    i.TIMER1_IRQHandler                      0x08005740   Section        0  bsp_timer.o(i.TIMER1_IRQHandler)
    i.TIMER5_IRQHandler                      0x08005764   Section        0  bsp_timer.o(i.TIMER5_IRQHandler)
    i.Task_HMI                               0x0800578c   Section        0  task_gui.o(i.Task_HMI)
    i.Task_bat                               0x080058a0   Section        0  task_status.o(i.Task_bat)
    i.Task_com                               0x08005930   Section        0  task_com.o(i.Task_com)
    i.Task_dose                              0x08005958   Section        0  task_dose.o(i.Task_dose)
    i.Task_manage                            0x08005968   Section        0  task_manage.o(i.Task_manage)
    i.Task_status                            0x0800597c   Section        0  task_status.o(i.Task_status)
    i.TimerGetCnt                            0x080059f8   Section        0  bsp_timer.o(i.TimerGetCnt)
    i.UART3_IRQHandler                       0x08005a04   Section        0  gd32f10x_it.o(i.UART3_IRQHandler)
    i.UART_IRQn                              0x08005a14   Section        0  bsp_uart.o(i.UART_IRQn)
    i.USART0_IRQHandler                      0x08005af0   Section        0  gd32f10x_it.o(i.USART0_IRQHandler)
    i.USART1_IRQHandler                      0x08005b00   Section        0  gd32f10x_it.o(i.USART1_IRQHandler)
    i.USART2_IRQHandler                      0x08005b04   Section        0  gd32f10x_it.o(i.USART2_IRQHandler)
    i.Uart3SetBaud                           0x08005b14   Section        0  bsp_uart.o(i.Uart3SetBaud)
    i.UsageFault_Handler                     0x08005b70   Section        0  gd32f10x_it.o(i.UsageFault_Handler)
    i.__ARM_fpclassify                       0x08005b74   Section        0  fpclassify.o(i.__ARM_fpclassify)
    i.__mathlib_dbl_overflow                 0x08005b9c   Section        0  dunder.o(i.__mathlib_dbl_overflow)
    i.__mathlib_dbl_underflow                0x08005bac   Section        0  dunder.o(i.__mathlib_dbl_underflow)
    i.__mathlib_narrow                       0x08005bbc   Section        0  narrow.o(i.__mathlib_narrow)
    i.__mathlib_tofloat                      0x08005bcc   Section        0  narrow.o(i.__mathlib_tofloat)
    i.__support_ldexp                        0x08005c88   Section        0  ldexp.o(i.__support_ldexp)
    i._is_digit                              0x08005c9e   Section        0  __printf_wp.o(i._is_digit)
    i.adc_calibration_enable                 0x08005cac   Section        0  gd32f10x_adc.o(i.adc_calibration_enable)
    i.adc_channel_length_config              0x08005cd6   Section        0  gd32f10x_adc.o(i.adc_channel_length_config)
    i.adc_data_alignment_config              0x08005d1c   Section        0  gd32f10x_adc.o(i.adc_data_alignment_config)
    i.adc_deinit                             0x08005d34   Section        0  gd32f10x_adc.o(i.adc_deinit)
    i.adc_enable                             0x08005d8c   Section        0  gd32f10x_adc.o(i.adc_enable)
    i.adc_external_trigger_config            0x08005d9e   Section        0  gd32f10x_adc.o(i.adc_external_trigger_config)
    i.adc_external_trigger_source_config     0x08005ddc   Section        0  gd32f10x_adc.o(i.adc_external_trigger_source_config)
    i.adc_flag_get                           0x08005e0c   Section        0  gd32f10x_adc.o(i.adc_flag_get)
    i.adc_mode_config                        0x08005e1c   Section        0  gd32f10x_adc.o(i.adc_mode_config)
    i.adc_regular_channel_config             0x08005e38   Section        0  gd32f10x_adc.o(i.adc_regular_channel_config)
    i.adc_regular_data_read                  0x08005ee4   Section        0  gd32f10x_adc.o(i.adc_regular_data_read)
    i.adc_software_trigger_enable            0x08005eec   Section        0  gd32f10x_adc.o(i.adc_software_trigger_enable)
    i.adc_special_function_config            0x08005f0a   Section        0  gd32f10x_adc.o(i.adc_special_function_config)
    i.add_buff_count                         0x08005f64   Section        0  dose.o(i.add_buff_count)
    add_buff_count                           0x08005f65   Thumb Code    34  dose.o(i.add_buff_count)
    i.add_fast_buff_count                    0x08005f90   Section        0  dose.o(i.add_fast_buff_count)
    add_fast_buff_count                      0x08005f91   Thumb Code    34  dose.o(i.add_fast_buff_count)
    i.add_parity_bit                         0x08005fbc   Section        0  bsp_uart.o(i.add_parity_bit)
    i.bsp_GetKey                             0x08006010   Section        0  bsp_key.o(i.bsp_GetKey)
    i.bsp_KeyScan                            0x08006044   Section        0  bsp_key.o(i.bsp_KeyScan)
    i.bsp_PutKey                             0x080060ec   Section        0  bsp_key.o(i.bsp_PutKey)
    i.comUartSetup                           0x0800610c   Section        0  task_manage.o(i.comUartSetup)
    i.count_data_check                       0x08006148   Section        0  dose.o(i.count_data_check)
    count_data_check                         0x08006149   Thumb Code   410  dose.o(i.count_data_check)
    i.count_to_rate                          0x0800631c   Section        0  dose.o(i.count_to_rate)
    count_to_rate                            0x0800631d   Thumb Code    72  dose.o(i.count_to_rate)
    i.delay_ms                               0x08006368   Section        0  sys.o(i.delay_ms)
    i.delay_us                               0x08006380   Section        0  sys.o(i.delay_us)
    i.display_time                           0x08006398   Section        0  display.o(i.display_time)
    i.eepromDataRefresh                      0x08006420   Section        0  task_manage.o(i.eepromDataRefresh)
    i.eepromSetStatus                        0x080064d8   Section        0  task_manage.o(i.eepromSetStatus)
    i.frexp                                  0x080064e8   Section        0  frexp.o(i.frexp)
    i.get_avage_count                        0x08006540   Section        0  dose.o(i.get_avage_count)
    get_avage_count                          0x08006541   Thumb Code    76  dose.o(i.get_avage_count)
    i.get_list_avage                         0x0800658c   Section        0  task_dose.o(i.get_list_avage)
    i.gpio_init                              0x080065d0   Section        0  gd32f10x_gpio.o(i.gpio_init)
    i.gpio_input_bit_get                     0x0800667c   Section        0  gd32f10x_gpio.o(i.gpio_input_bit_get)
    i.gpio_pin_remap_config                  0x0800668c   Section        0  gd32f10x_gpio.o(i.gpio_pin_remap_config)
    i.lcd_gpio_init                          0x0800671c   Section        0  bsp_lcd.o(i.lcd_gpio_init)
    i.lcd_spi_init                           0x0800677c   Section        0  bsp_lcd.o(i.lcd_spi_init)
    i.ldexp                                  0x080067bc   Section        0  ldexp.o(i.ldexp)
    i.list_add                               0x08006830   Section        0  task_dose.o(i.list_add)
    i.list_refresh                           0x0800684a   Section        0  task_dose.o(i.list_refresh)
    i.main                                   0x08006860   Section        0  main.o(i.main)
    i.menu01                                 0x08006938   Section        0  task_gui.o(i.menu01)
    i.menu011                                0x080069c4   Section        0  task_gui.o(i.menu011)
    i.menu0111                               0x08006adc   Section        0  task_gui.o(i.menu0111)
    i.menu012                                0x08006c74   Section        0  task_gui.o(i.menu012)
    i.menu0121                               0x08006dc8   Section        0  task_gui.o(i.menu0121)
    i.menu013                                0x080071a4   Section        0  task_gui.o(i.menu013)
    i.menu0131                               0x080072dc   Section        0  task_gui.o(i.menu0131)
    i.menu014                                0x080076c4   Section        0  task_gui.o(i.menu014)
    i.menu0141                               0x080077c4   Section        0  task_gui.o(i.menu0141)
    i.menu015                                0x08007994   Section        0  task_gui.o(i.menu015)
    i.menu0151                               0x08007aac   Section        0  task_gui.o(i.menu0151)
    i.menu02                                 0x08007c98   Section        0  task_gui.o(i.menu02)
    i.menu03                                 0x08007d24   Section        0  task_gui.o(i.menu03)
    i.menu1                                  0x08007f3c   Section        0  task_gui.o(i.menu1)
    i.menu11                                 0x08008050   Section        0  task_gui.o(i.menu11)
    i.menu111                                0x08008164   Section        0  task_gui.o(i.menu111)
    i.menu12                                 0x080083f0   Section        0  task_gui.o(i.menu12)
    i.menu121                                0x08008504   Section        0  task_gui.o(i.menu121)
    i.menu2                                  0x080087a4   Section        0  task_gui.o(i.menu2)
    i.menu21                                 0x080088e4   Section        0  task_gui.o(i.menu21)
    i.menu211                                0x08008a24   Section        0  task_gui.o(i.menu211)
    i.menu22                                 0x08008b28   Section        0  task_gui.o(i.menu22)
    i.menu221                                0x08008c68   Section        0  task_gui.o(i.menu221)
    i.menu23                                 0x08008de8   Section        0  task_gui.o(i.menu23)
    i.menu231                                0x08008f28   Section        0  task_gui.o(i.menu231)
    i.menu3                                  0x08009130   Section        0  task_gui.o(i.menu3)
    i.menu31                                 0x0800923c   Section        0  task_gui.o(i.menu31)
    i.menu311                                0x08009338   Section        0  task_gui.o(i.menu311)
    i.menu4                                  0x0800943c   Section        0  task_gui.o(i.menu4)
    i.menu41                                 0x08009598   Section        0  task_gui.o(i.menu41)
    i.menu42                                 0x080096f4   Section        0  task_gui.o(i.menu42)
    i.menu43                                 0x08009850   Section        0  task_gui.o(i.menu43)
    i.menu44                                 0x080099ac   Section        0  task_gui.o(i.menu44)
    i.menu5                                  0x08009b08   Section        0  task_gui.o(i.menu5)
    i.menu51                                 0x08009c10   Section        0  task_gui.o(i.menu51)
    i.menu511                                0x08009d18   Section        0  task_gui.o(i.menu511)
    i.menu61                                 0x08009ee0   Section        0  task_gui.o(i.menu61)
    i.menu611                                0x08009f9c   Section        0  task_gui.o(i.menu611)
    i.menu62                                 0x0800a00c   Section        0  task_gui.o(i.menu62)
    i.menu621                                0x0800a0c8   Section        0  task_gui.o(i.menu621)
    i.menu63                                 0x0800a288   Section        0  task_gui.o(i.menu63)
    i.menu631                                0x0800a344   Section        0  task_gui.o(i.menu631)
    i.menu_main1                             0x0800a5a4   Section        0  task_gui.o(i.menu_main1)
    i.menu_main2                             0x0800a69c   Section        0  task_gui.o(i.menu_main2)
    i.menu_main3                             0x0800a7ac   Section        0  task_gui.o(i.menu_main3)
    i.menu_shutdown                          0x0800a7ae   Section        0  task_gui.o(i.menu_shutdown)
    i.nvic_irq_enable                        0x0800a800   Section        0  gd32f10x_misc.o(i.nvic_irq_enable)
    i.nvic_priority_group_set                0x0800a8ac   Section        0  gd32f10x_misc.o(i.nvic_priority_group_set)
    i.nvic_vector_table_set                  0x0800a8c0   Section        0  gd32f10x_misc.o(i.nvic_vector_table_set)
    i.rcu_adc_clock_config                   0x0800a8d8   Section        0  gd32f10x_rcu.o(i.rcu_adc_clock_config)
    i.rcu_clock_freq_get                     0x0800a920   Section        0  gd32f10x_rcu.o(i.rcu_clock_freq_get)
    i.rcu_periph_clock_enable                0x0800aa44   Section        0  gd32f10x_rcu.o(i.rcu_periph_clock_enable)
    i.rcu_periph_reset_disable               0x0800aa64   Section        0  gd32f10x_rcu.o(i.rcu_periph_reset_disable)
    i.rcu_periph_reset_enable                0x0800aa84   Section        0  gd32f10x_rcu.o(i.rcu_periph_reset_enable)
    i.read_eeprom                            0x0800aaa4   Section        0  bsp_eeprom.o(i.read_eeprom)
    i.setSystemTick                          0x0800ab1c   Section        0  sys_config.o(i.setSystemTick)
    i.spi_enable                             0x0800ab70   Section        0  gd32f10x_spi.o(i.spi_enable)
    i.spi_i2s_data_receive                   0x0800ab7a   Section        0  gd32f10x_spi.o(i.spi_i2s_data_receive)
    i.spi_i2s_data_transmit                  0x0800ab82   Section        0  gd32f10x_spi.o(i.spi_i2s_data_transmit)
    i.spi_i2s_flag_get                       0x0800ab86   Section        0  gd32f10x_spi.o(i.spi_i2s_flag_get)
    i.spi_init                               0x0800ab96   Section        0  gd32f10x_spi.o(i.spi_init)
    i.spi_send_byte                          0x0800abc8   Section        0  bsp_lcd.o(i.spi_send_byte)
    i.system_clock_108m_hxtal                0x0800ac00   Section        0  system_gd32f10x.o(i.system_clock_108m_hxtal)
    system_clock_108m_hxtal                  0x0800ac01   Thumb Code   182  system_gd32f10x.o(i.system_clock_108m_hxtal)
    i.system_clock_config                    0x0800acc4   Section        0  system_gd32f10x.o(i.system_clock_config)
    system_clock_config                      0x0800acc5   Thumb Code     8  system_gd32f10x.o(i.system_clock_config)
    i.taskTicksInc                           0x0800accc   Section        0  sys_config.o(i.taskTicksInc)
    i.timer_auto_reload_shadow_enable        0x0800acdc   Section        0  gd32f10x_timer.o(i.timer_auto_reload_shadow_enable)
    i.timer_channel_output_config            0x0800ace8   Section        0  gd32f10x_timer.o(i.timer_channel_output_config)
    i.timer_channel_output_mode_config       0x0800aed4   Section        0  gd32f10x_timer.o(i.timer_channel_output_mode_config)
    i.timer_channel_output_pulse_value_config 0x0800af2e   Section        0  gd32f10x_timer.o(i.timer_channel_output_pulse_value_config)
    i.timer_channel_output_shadow_config     0x0800af54   Section        0  gd32f10x_timer.o(i.timer_channel_output_shadow_config)
    i.timer_counter_value_config             0x0800afae   Section        0  gd32f10x_timer.o(i.timer_counter_value_config)
    i.timer_deinit                           0x0800afb4   Section        0  gd32f10x_timer.o(i.timer_deinit)
    i.timer_enable                           0x0800b090   Section        0  gd32f10x_timer.o(i.timer_enable)
    i.timer_external_clock_mode1_config      0x0800b09a   Section        0  gd32f10x_timer.o(i.timer_external_clock_mode1_config)
    i.timer_external_trigger_config          0x0800b0ba   Section        0  gd32f10x_timer.o(i.timer_external_trigger_config)
    i.timer_flag_clear                       0x0800b0d8   Section        0  gd32f10x_timer.o(i.timer_flag_clear)
    i.timer_init                             0x0800b0e0   Section        0  gd32f10x_timer.o(i.timer_init)
    i.timer_input_trigger_source_select      0x0800b1c0   Section        0  gd32f10x_timer.o(i.timer_input_trigger_source_select)
    i.timer_interrupt_enable                 0x0800b1d0   Section        0  gd32f10x_timer.o(i.timer_interrupt_enable)
    i.timer_interrupt_flag_clear             0x0800b1d8   Section        0  gd32f10x_timer.o(i.timer_interrupt_flag_clear)
    i.timer_interrupt_flag_get               0x0800b1de   Section        0  gd32f10x_timer.o(i.timer_interrupt_flag_get)
    i.timer_master_slave_mode_config         0x0800b1f6   Section        0  gd32f10x_timer.o(i.timer_master_slave_mode_config)
    i.timer_slave_mode_select                0x0800b210   Section        0  gd32f10x_timer.o(i.timer_slave_mode_select)
    i.timer_struct_para_init                 0x0800b220   Section        0  gd32f10x_timer.o(i.timer_struct_para_init)
    i.uart_send_buf                          0x0800b238   Section        0  bsp_uart.o(i.uart_send_buf)
    i.uart_var_init                          0x0800b2b4   Section        0  bsp_uart.o(i.uart_var_init)
    uart_var_init                            0x0800b2b5   Thumb Code    66  bsp_uart.o(i.uart_var_init)
    i.usart_baudrate_set                     0x0800b318   Section        0  gd32f10x_usart.o(i.usart_baudrate_set)
    i.usart_data_receive                     0x0800b3a8   Section        0  gd32f10x_usart.o(i.usart_data_receive)
    i.usart_data_transmit                    0x0800b3b2   Section        0  gd32f10x_usart.o(i.usart_data_transmit)
    i.usart_deinit                           0x0800b3bc   Section        0  gd32f10x_usart.o(i.usart_deinit)
    i.usart_enable                           0x0800b44c   Section        0  gd32f10x_usart.o(i.usart_enable)
    i.usart_flag_get                         0x0800b456   Section        0  gd32f10x_usart.o(i.usart_flag_get)
    i.usart_hardware_flow_cts_config         0x0800b474   Section        0  gd32f10x_usart.o(i.usart_hardware_flow_cts_config)
    i.usart_hardware_flow_rts_config         0x0800b488   Section        0  gd32f10x_usart.o(i.usart_hardware_flow_rts_config)
    i.usart_interrupt_disable                0x0800b49c   Section        0  gd32f10x_usart.o(i.usart_interrupt_disable)
    i.usart_interrupt_enable                 0x0800b4b6   Section        0  gd32f10x_usart.o(i.usart_interrupt_enable)
    i.usart_interrupt_flag_clear             0x0800b4d0   Section        0  gd32f10x_usart.o(i.usart_interrupt_flag_clear)
    i.usart_interrupt_flag_get               0x0800b4e2   Section        0  gd32f10x_usart.o(i.usart_interrupt_flag_get)
    i.usart_parity_config                    0x0800b51a   Section        0  gd32f10x_usart.o(i.usart_parity_config)
    i.usart_receive_config                   0x0800b52a   Section        0  gd32f10x_usart.o(i.usart_receive_config)
    i.usart_stop_bit_set                     0x0800b53a   Section        0  gd32f10x_usart.o(i.usart_stop_bit_set)
    i.usart_transmit_config                  0x0800b54a   Section        0  gd32f10x_usart.o(i.usart_transmit_config)
    i.usart_word_length_set                  0x0800b55a   Section        0  gd32f10x_usart.o(i.usart_word_length_set)
    i.write_eeprom                           0x0800b56a   Section        0  bsp_eeprom.o(i.write_eeprom)
    locale$$code                             0x0800b5f4   Section       44  lc_numeric_c.o(locale$$code)
    locale$$code                             0x0800b620   Section       44  lc_ctype_c.o(locale$$code)
    x$fpl$d2f                                0x0800b64c   Section       98  d2f.o(x$fpl$d2f)
    x$fpl$dcheck1                            0x0800b6b0   Section       16  dcheck1.o(x$fpl$dcheck1)
    x$fpl$dcmpinf                            0x0800b6c0   Section       24  dcmpi.o(x$fpl$dcmpinf)
    x$fpl$deqf                               0x0800b6d8   Section      120  deqf.o(x$fpl$deqf)
    x$fpl$dleqf                              0x0800b750   Section      120  dleqf.o(x$fpl$dleqf)
    x$fpl$dmul                               0x0800b7c8   Section      340  dmul.o(x$fpl$dmul)
    x$fpl$dnaninf                            0x0800b91c   Section      156  dnaninf.o(x$fpl$dnaninf)
    x$fpl$dretinf                            0x0800b9b8   Section       12  dretinf.o(x$fpl$dretinf)
    x$fpl$drleqf                             0x0800b9c4   Section      108  drleqf.o(x$fpl$drleqf)
    x$fpl$f2d                                0x0800ba30   Section       86  f2d.o(x$fpl$f2d)
    x$fpl$fadd                               0x0800ba88   Section      196  faddsub_clz.o(x$fpl$fadd)
    _fadd1                                   0x0800ba97   Thumb Code     0  faddsub_clz.o(x$fpl$fadd)
    x$fpl$fcmpinf                            0x0800bb4c   Section       24  fcmpi.o(x$fpl$fcmpinf)
    x$fpl$fdiv                               0x0800bb64   Section      388  fdiv.o(x$fpl$fdiv)
    _fdiv1                                   0x0800bb65   Thumb Code     0  fdiv.o(x$fpl$fdiv)
    x$fpl$feqf                               0x0800bce8   Section      104  feqf.o(x$fpl$feqf)
    x$fpl$ffixu                              0x0800bd50   Section       62  ffixu.o(x$fpl$ffixu)
    x$fpl$ffltu                              0x0800bd90   Section       38  fflt_clz.o(x$fpl$ffltu)
    x$fpl$fleqf                              0x0800bdb8   Section      104  fleqf.o(x$fpl$fleqf)
    x$fpl$fmul                               0x0800be20   Section      258  fmul.o(x$fpl$fmul)
    x$fpl$fnaninf                            0x0800bf22   Section      140  fnaninf.o(x$fpl$fnaninf)
    x$fpl$fretinf                            0x0800bfae   Section       10  fretinf.o(x$fpl$fretinf)
    x$fpl$frleqf                             0x0800bfb8   Section       98  frleqf.o(x$fpl$frleqf)
    x$fpl$fsub                               0x0800c01c   Section      234  faddsub_clz.o(x$fpl$fsub)
    _fsub1                                   0x0800c02b   Thumb Code     0  faddsub_clz.o(x$fpl$fsub)
    x$fpl$ieeestatus                         0x0800c106   Section        6  istatus.o(x$fpl$ieeestatus)
    x$fpl$printf1                            0x0800c10c   Section        4  printf1.o(x$fpl$printf1)
    x$fpl$retnan                             0x0800c110   Section      100  retnan.o(x$fpl$retnan)
    x$fpl$scalbn                             0x0800c174   Section       92  scalbn.o(x$fpl$scalbn)
    x$fpl$scanf1                             0x0800c1d0   Section        4  scanf1.o(x$fpl$scanf1)
    x$fpl$scanf2                             0x0800c1d4   Section        8  scanf2.o(x$fpl$scanf2)
    x$fpl$trapveneer                         0x0800c1dc   Section       48  trapv.o(x$fpl$trapveneer)
    .constdata                               0x0800c20c   Section       22  bsp_adc.o(.constdata)
    x$fpl$usenofp                            0x0800c20c   Section        0  usenofp.o(x$fpl$usenofp)
    .constdata                               0x0800c222   Section       20  task_status.o(.constdata)
    .constdata                               0x0800c238   Section       36  task_manage.o(.constdata)
    .constdata                               0x0800c25c   Section    21244  gui.o(.constdata)
    .constdata                               0x08011558   Section       17  __printf_flags_wp.o(.constdata)
    maptable                                 0x08011558   Data          17  __printf_flags_wp.o(.constdata)
    .constdata                               0x0801156c   Section      148  bigflt0.o(.constdata)
    tenpwrs_x                                0x0801156c   Data          60  bigflt0.o(.constdata)
    tenpwrs_i                                0x080115a8   Data          64  bigflt0.o(.constdata)
    c$$dinf                                  0x08011620   Section        8  fpconst.o(c$$dinf)
    c$$dmax                                  0x08011628   Section        8  fpconst.o(c$$dmax)
    locale$$data                             0x08011630   Section       28  lc_numeric_c.o(locale$$data)
    __lcnum_c_name                           0x08011634   Data           2  lc_numeric_c.o(locale$$data)
    __lcnum_c_start                          0x0801163c   Data           0  lc_numeric_c.o(locale$$data)
    __lcnum_c_point                          0x08011648   Data           0  lc_numeric_c.o(locale$$data)
    __lcnum_c_thousands                      0x0801164a   Data           0  lc_numeric_c.o(locale$$data)
    __lcnum_c_grouping                       0x0801164b   Data           0  lc_numeric_c.o(locale$$data)
    locale$$data                             0x0801164c   Section      272  lc_ctype_c.o(locale$$data)
    __lcnum_c_end                            0x0801164c   Data           0  lc_numeric_c.o(locale$$data)
    __lcctype_c_name                         0x08011650   Data           2  lc_ctype_c.o(locale$$data)
    __lcctype_c_start                        0x08011658   Data           0  lc_ctype_c.o(locale$$data)
    __lcctype_c_end                          0x0801175c   Data           0  lc_ctype_c.o(locale$$data)
    .data                                    0x20000000   Section        4  system_gd32f10x.o(.data)
    .data                                    0x20000004   Section       12  bsp_timer.o(.data)
    timer0OverflowCnt                        0x20000008   Data           4  bsp_timer.o(.data)
    timer1OverflowCnt                        0x2000000c   Data           4  bsp_timer.o(.data)
    .data                                    0x20000010   Section       44  bsp_key.o(.data)
    keyState                                 0x20000010   Data           1  bsp_key.o(.data)
    .data                                    0x2000003c   Section       76  main.o(.data)
    task1Cnt                                 0x20000078   Data           4  main.o(.data)
    task2Cnt                                 0x2000007c   Data           4  main.o(.data)
    task3Cnt                                 0x20000080   Data           4  main.o(.data)
    task4Cnt                                 0x20000084   Data           4  main.o(.data)
    .data                                    0x20000088   Section        4  sys_config.o(.data)
    .data                                    0x2000008c   Section       84  task_com.o(.data)
    s_ucIndex                                0x200000de   Data           1  task_com.o(.data)
    getIndex                                 0x200000df   Data           1  task_com.o(.data)
    .data                                    0x200000e0   Section      801  task_gui.o(.data)
    menuIndex                                0x200000e0   Data           1  task_gui.o(.data)
    preMenuIndex                             0x200000e1   Data           1  task_gui.o(.data)
    ps                                       0x200003c4   Data           4  task_gui.o(.data)
    index                                    0x200003c8   Data           1  task_gui.o(.data)
    beep                                     0x200003c9   Data           1  task_gui.o(.data)
    tim                                      0x200003ca   Data           3  task_gui.o(.data)
    index                                    0x200003cd   Data           1  task_gui.o(.data)
    tim                                      0x200003ce   Data           3  task_gui.o(.data)
    index                                    0x200003d1   Data           1  task_gui.o(.data)
    bright                                   0x200003d2   Data           1  task_gui.o(.data)
    blTime                                   0x200003d4   Data           2  task_gui.o(.data)
    str                                      0x200003d6   Data           6  task_gui.o(.data)
    index                                    0x200003dc   Data           1  task_gui.o(.data)
    str                                      0x200003dd   Data           6  task_gui.o(.data)
    index                                    0x200003e3   Data           1  task_gui.o(.data)
    cnt                                      0x200003e4   Data           1  task_gui.o(.data)
    back                                     0x200003e5   Data           1  task_gui.o(.data)
    unit                                     0x200003e6   Data           1  task_gui.o(.data)
    dt                                       0x200003e7   Data           1  task_gui.o(.data)
    str                                      0x200003e8   Data           6  task_gui.o(.data)
    index                                    0x200003ee   Data           1  task_gui.o(.data)
    ps                                       0x200003ef   Data           4  task_gui.o(.data)
    index                                    0x200003f3   Data           1  task_gui.o(.data)
    str                                      0x200003f4   Data           3  task_gui.o(.data)
    index                                    0x200003f7   Data           1  task_gui.o(.data)
    str                                      0x200003f8   Data           8  task_gui.o(.data)
    index                                    0x20000400   Data           1  task_gui.o(.data)
    .data                                    0x20000404   Section       48  task_dose.o(.data)
    intPulseIndex                            0x20000404   Data           4  task_dose.o(.data)
    ch_size                                  0x20000408   Data           4  task_dose.o(.data)
    .data                                    0x20000434   Section       15  task_status.o(.data)
    step                                     0x20000436   Data           1  task_status.o(.data)
    preLevel                                 0x20000437   Data           1  task_status.o(.data)
    onTicks                                  0x20000438   Data           1  task_status.o(.data)
    offTicks                                 0x20000439   Data           1  task_status.o(.data)
    step                                     0x2000043a   Data           1  task_status.o(.data)
    batper                                   0x2000043b   Data           6  task_status.o(.data)
    step                                     0x20000441   Data           1  task_status.o(.data)
    firstIn                                  0x20000442   Data           1  task_status.o(.data)
    .data                                    0x20000444   Section        5  task_manage.o(.data)
    eepromSetFlag                            0x20000444   Data           4  task_manage.o(.data)
    preType                                  0x20000448   Data           1  task_manage.o(.data)
    .data                                    0x2000044c   Section       14  dose.o(.data)
    Count_No_Sign                            0x2000044c   Data           1  dose.o(.data)
    Count_Slide                              0x2000044e   Data           2  dose.o(.data)
    Count_Fast                               0x20000450   Data           1  dose.o(.data)
    Cps_Avage                                0x20000454   Data           4  dose.o(.data)
    fast_up_count                            0x20000458   Data           1  dose.o(.data)
    fast_down_count                          0x20000459   Data           1  dose.o(.data)
    .bss                                     0x2000045c   Section     2104  bsp_uart.o(.bss)
    .bss                                     0x20000c94   Section       12  bsp_key.o(.bss)
    .bss                                     0x20000ca0   Section      692  task_dose.o(.bss)
    intPulseBuff                             0x20000ca0   Data         240  task_dose.o(.bss)
    list_buff                                0x20000d90   Data         400  task_dose.o(.bss)
    ch_cps                                   0x20000f3c   Data          24  task_dose.o(.bss)
    .bss                                     0x20000f54   Section      420  dose.o(.bss)
    Slide_Buff                               0x20000f54   Data         400  dose.o(.bss)
    Fast_Slide_Buff                          0x200010e4   Data          20  dose.o(.bss)
    .bss                                     0x200010f8   Section     4800  gui.o(.bss)
    .bss                                     0x200023b8   Section       96  libspace.o(.bss)
    HEAP                                     0x20002418   Section     1024  startup_gd32f10x_hd.o(HEAP)
    Heap_Mem                                 0x20002418   Data        1024  startup_gd32f10x_hd.o(HEAP)
    STACK                                    0x20002818   Section     1536  startup_gd32f10x_hd.o(STACK)
    Stack_Mem                                0x20002818   Data        1536  startup_gd32f10x_hd.o(STACK)
    __initial_sp                             0x20002e18   Data           0  startup_gd32f10x_hd.o(STACK)

    Global Symbols

    Symbol Name                              Value     Ov Type        Size  Object(Section)

    BuildAttributes$$THM_ISAv4$P$D$K$B$S$PE$A:L22UL41UL21$X:L11$S22US41US21$IEEE1$IW$USESV6$~STKCKD$USESV7$~SHL$OTIME$ROPI$IEEEX$EBA8$UX$STANDARDLIB$REQ8$PRES8$EABIv2 0x00000000   Number         0  anon$$obj.o ABSOLUTE
    __ARM_use_no_argv                        0x00000000   Number         0  main.o ABSOLUTE
    _printf_flags                            0x00000000   Number         0  printf_stubs.o ABSOLUTE
    _printf_return_value                     0x00000000   Number         0  printf_stubs.o ABSOLUTE
    _printf_sizespec                         0x00000000   Number         0  printf_stubs.o ABSOLUTE
    _printf_widthprec                        0x00000000   Number         0  printf_stubs.o ABSOLUTE
    __ARM_exceptions_init                     - Undefined Weak Reference
    __alloca_initialize                       - Undefined Weak Reference
    __arm_fini_                               - Undefined Weak Reference
    __arm_preinit_                            - Undefined Weak Reference
    __cpp_initialize__aeabi_                  - Undefined Weak Reference
    __cxa_finalize                            - Undefined Weak Reference
    __sigvec_lookup                           - Undefined Weak Reference
    _atexit_init                              - Undefined Weak Reference
    _call_atexit_fns                          - Undefined Weak Reference
    _clock_init                               - Undefined Weak Reference
    _fp_trap_init                             - Undefined Weak Reference
    _fp_trap_shutdown                         - Undefined Weak Reference
    _get_lc_collate                           - Undefined Weak Reference
    _get_lc_monetary                          - Undefined Weak Reference
    _get_lc_time                              - Undefined Weak Reference
    _getenv_init                              - Undefined Weak Reference
    _handle_redirection                       - Undefined Weak Reference
    _init_alloc                               - Undefined Weak Reference
    _init_user_alloc                          - Undefined Weak Reference
    _initio                                   - Undefined Weak Reference
    _printf_truncate_signed                   - Undefined Weak Reference
    _printf_truncate_unsigned                 - Undefined Weak Reference
    _rand_init                                - Undefined Weak Reference
    _scanf_int                                - Undefined Weak Reference
    _scanf_longlong                           - Undefined Weak Reference
    _scanf_mbtowc                             - Undefined Weak Reference
    _scanf_string                             - Undefined Weak Reference
    _scanf_wctomb                             - Undefined Weak Reference
    _scanf_wstring                            - Undefined Weak Reference
    _signal_finish                            - Undefined Weak Reference
    _signal_init                              - Undefined Weak Reference
    _terminate_alloc                          - Undefined Weak Reference
    _terminate_user_alloc                     - Undefined Weak Reference
    _terminateio                              - Undefined Weak Reference
    __Vectors_Size                           0x00000130   Number         0  startup_gd32f10x_hd.o ABSOLUTE
    __Vectors                                0x08000000   Data           4  startup_gd32f10x_hd.o(RESET)
    __Vectors_End                            0x08000130   Data           0  startup_gd32f10x_hd.o(RESET)
    __main                                   0x08000131   Thumb Code     8  __main.o(!!!main)
    __scatterload                            0x08000139   Thumb Code     0  __scatter.o(!!!scatter)
    __scatterload_rt2                        0x08000139   Thumb Code    44  __scatter.o(!!!scatter)
    __scatterload_rt2_thumb_only             0x08000139   Thumb Code     0  __scatter.o(!!!scatter)
    __scatterload_null                       0x08000147   Thumb Code     0  __scatter.o(!!!scatter)
    __decompress                             0x0800016d   Thumb Code    90  __dczerorl2.o(!!dczerorl2)
    __decompress1                            0x0800016d   Thumb Code     0  __dczerorl2.o(!!dczerorl2)
    __scatterload_zeroinit                   0x080001c9   Thumb Code    28  __scatter_zi.o(!!handler_zi)
    _printf_f                                0x080001e5   Thumb Code     0  _printf_f.o(.ARM.Collect$$_printf_percent$$00000003)
    _printf_percent                          0x080001e5   Thumb Code     0  _printf_percent.o(.ARM.Collect$$_printf_percent$$00000000)
    _printf_d                                0x080001eb   Thumb Code     0  _printf_d.o(.ARM.Collect$$_printf_percent$$00000009)
    _printf_percent_end                      0x080001f1   Thumb Code     0  _printf_percent_end.o(.ARM.Collect$$_printf_percent$$00000017)
    __rt_lib_init                            0x080001f5   Thumb Code     0  libinit.o(.ARM.Collect$$libinit$$00000000)
    __rt_lib_init_fp_1                       0x080001f7   Thumb Code     0  libinit2.o(.ARM.Collect$$libinit$$00000002)
    __rt_lib_init_heap_1                     0x080001f7   Thumb Code     0  libinit2.o(.ARM.Collect$$libinit$$0000000A)
    __rt_lib_init_lc_common                  0x080001f7   Thumb Code     0  libinit2.o(.ARM.Collect$$libinit$$0000000F)
    __rt_lib_init_preinit_1                  0x080001f7   Thumb Code     0  libinit2.o(.ARM.Collect$$libinit$$00000004)
    __rt_lib_init_rand_1                     0x080001f7   Thumb Code     0  libinit2.o(.ARM.Collect$$libinit$$0000000E)
    __rt_lib_init_user_alloc_1               0x080001f7   Thumb Code     0  libinit2.o(.ARM.Collect$$libinit$$0000000C)
    __rt_lib_init_lc_collate_1               0x080001fd   Thumb Code     0  libinit2.o(.ARM.Collect$$libinit$$00000011)
    __rt_lib_init_lc_ctype_2                 0x080001fd   Thumb Code     0  libinit2.o(.ARM.Collect$$libinit$$00000012)
    __rt_lib_init_lc_ctype_1                 0x08000209   Thumb Code     0  libinit2.o(.ARM.Collect$$libinit$$00000013)
    __rt_lib_init_lc_monetary_1              0x08000209   Thumb Code     0  libinit2.o(.ARM.Collect$$libinit$$00000015)
    __rt_lib_init_lc_numeric_2               0x08000209   Thumb Code     0  libinit2.o(.ARM.Collect$$libinit$$00000016)
    __rt_lib_init_alloca_1                   0x08000213   Thumb Code     0  libinit2.o(.ARM.Collect$$libinit$$0000002E)
    __rt_lib_init_argv_1                     0x08000213   Thumb Code     0  libinit2.o(.ARM.Collect$$libinit$$0000002C)
    __rt_lib_init_atexit_1                   0x08000213   Thumb Code     0  libinit2.o(.ARM.Collect$$libinit$$0000001B)
    __rt_lib_init_clock_1                    0x08000213   Thumb Code     0  libinit2.o(.ARM.Collect$$libinit$$00000021)
    __rt_lib_init_cpp_1                      0x08000213   Thumb Code     0  libinit2.o(.ARM.Collect$$libinit$$00000032)
    __rt_lib_init_exceptions_1               0x08000213   Thumb Code     0  libinit2.o(.ARM.Collect$$libinit$$00000030)
    __rt_lib_init_fp_trap_1                  0x08000213   Thumb Code     0  libinit2.o(.ARM.Collect$$libinit$$0000001F)
    __rt_lib_init_getenv_1                   0x08000213   Thumb Code     0  libinit2.o(.ARM.Collect$$libinit$$00000023)
    __rt_lib_init_lc_numeric_1               0x08000213   Thumb Code     0  libinit2.o(.ARM.Collect$$libinit$$00000017)
    __rt_lib_init_lc_time_1                  0x08000213   Thumb Code     0  libinit2.o(.ARM.Collect$$libinit$$00000019)
    __rt_lib_init_return                     0x08000213   Thumb Code     0  libinit2.o(.ARM.Collect$$libinit$$00000033)
    __rt_lib_init_signal_1                   0x08000213   Thumb Code     0  libinit2.o(.ARM.Collect$$libinit$$0000001D)
    __rt_lib_init_stdio_1                    0x08000213   Thumb Code     0  libinit2.o(.ARM.Collect$$libinit$$00000025)
    __rt_lib_shutdown                        0x08000215   Thumb Code     0  libshutdown.o(.ARM.Collect$$libshutdown$$00000000)
    __rt_lib_shutdown_cpp_1                  0x08000217   Thumb Code     0  libshutdown2.o(.ARM.Collect$$libshutdown$$00000004)
    __rt_lib_shutdown_fini_1                 0x08000217   Thumb Code     0  libshutdown2.o(.ARM.Collect$$libshutdown$$00000002)
    __rt_lib_shutdown_fp_trap_1              0x08000217   Thumb Code     0  libshutdown2.o(.ARM.Collect$$libshutdown$$00000009)
    __rt_lib_shutdown_heap_1                 0x08000217   Thumb Code     0  libshutdown2.o(.ARM.Collect$$libshutdown$$00000011)
    __rt_lib_shutdown_return                 0x08000217   Thumb Code     0  libshutdown2.o(.ARM.Collect$$libshutdown$$00000012)
    __rt_lib_shutdown_signal_1               0x08000217   Thumb Code     0  libshutdown2.o(.ARM.Collect$$libshutdown$$0000000C)
    __rt_lib_shutdown_stdio_1                0x08000217   Thumb Code     0  libshutdown2.o(.ARM.Collect$$libshutdown$$00000006)
    __rt_lib_shutdown_user_alloc_1           0x08000217   Thumb Code     0  libshutdown2.o(.ARM.Collect$$libshutdown$$0000000E)
    __rt_entry                               0x08000219   Thumb Code     0  __rtentry.o(.ARM.Collect$$rtentry$$00000000)
    __rt_entry_presh_1                       0x08000219   Thumb Code     0  __rtentry2.o(.ARM.Collect$$rtentry$$00000002)
    __rt_entry_sh                            0x08000219   Thumb Code     0  __rtentry4.o(.ARM.Collect$$rtentry$$00000004)
    __rt_entry_li                            0x0800021f   Thumb Code     0  __rtentry2.o(.ARM.Collect$$rtentry$$0000000A)
    __rt_entry_postsh_1                      0x0800021f   Thumb Code     0  __rtentry2.o(.ARM.Collect$$rtentry$$00000009)
    __rt_entry_main                          0x08000223   Thumb Code     0  __rtentry2.o(.ARM.Collect$$rtentry$$0000000D)
    __rt_entry_postli_1                      0x08000223   Thumb Code     0  __rtentry2.o(.ARM.Collect$$rtentry$$0000000C)
    __rt_exit                                0x0800022b   Thumb Code     0  rtexit.o(.ARM.Collect$$rtexit$$00000000)
    __rt_exit_ls                             0x0800022d   Thumb Code     0  rtexit2.o(.ARM.Collect$$rtexit$$00000003)
    __rt_exit_prels_1                        0x0800022d   Thumb Code     0  rtexit2.o(.ARM.Collect$$rtexit$$00000002)
    __rt_exit_exit                           0x08000231   Thumb Code     0  rtexit2.o(.ARM.Collect$$rtexit$$00000004)
    Reset_Handler                            0x08000239   Thumb Code     8  startup_gd32f10x_hd.o(.text)
    SVC_Handler                              0x0800024b   Thumb Code     2  startup_gd32f10x_hd.o(.text)
    PendSV_Handler                           0x0800024f   Thumb Code     2  startup_gd32f10x_hd.o(.text)
    ADC0_1_IRQHandler                        0x08000253   Thumb Code     0  startup_gd32f10x_hd.o(.text)
    ADC2_IRQHandler                          0x08000253   Thumb Code     0  startup_gd32f10x_hd.o(.text)
    CAN0_EWMC_IRQHandler                     0x08000253   Thumb Code     0  startup_gd32f10x_hd.o(.text)
    CAN0_RX1_IRQHandler                      0x08000253   Thumb Code     0  startup_gd32f10x_hd.o(.text)
    DMA0_Channel0_IRQHandler                 0x08000253   Thumb Code     0  startup_gd32f10x_hd.o(.text)
    DMA0_Channel1_IRQHandler                 0x08000253   Thumb Code     0  startup_gd32f10x_hd.o(.text)
    DMA0_Channel2_IRQHandler                 0x08000253   Thumb Code     0  startup_gd32f10x_hd.o(.text)
    DMA0_Channel3_IRQHandler                 0x08000253   Thumb Code     0  startup_gd32f10x_hd.o(.text)
    DMA0_Channel4_IRQHandler                 0x08000253   Thumb Code     0  startup_gd32f10x_hd.o(.text)
    DMA0_Channel5_IRQHandler                 0x08000253   Thumb Code     0  startup_gd32f10x_hd.o(.text)
    DMA0_Channel6_IRQHandler                 0x08000253   Thumb Code     0  startup_gd32f10x_hd.o(.text)
    DMA1_Channel0_IRQHandler                 0x08000253   Thumb Code     0  startup_gd32f10x_hd.o(.text)
    DMA1_Channel1_IRQHandler                 0x08000253   Thumb Code     0  startup_gd32f10x_hd.o(.text)
    DMA1_Channel2_IRQHandler                 0x08000253   Thumb Code     0  startup_gd32f10x_hd.o(.text)
    DMA1_Channel3_4_IRQHandler               0x08000253   Thumb Code     0  startup_gd32f10x_hd.o(.text)
    EXMC_IRQHandler                          0x08000253   Thumb Code     0  startup_gd32f10x_hd.o(.text)
    EXTI0_IRQHandler                         0x08000253   Thumb Code     0  startup_gd32f10x_hd.o(.text)
    EXTI10_15_IRQHandler                     0x08000253   Thumb Code     0  startup_gd32f10x_hd.o(.text)
    EXTI1_IRQHandler                         0x08000253   Thumb Code     0  startup_gd32f10x_hd.o(.text)
    EXTI2_IRQHandler                         0x08000253   Thumb Code     0  startup_gd32f10x_hd.o(.text)
    EXTI3_IRQHandler                         0x08000253   Thumb Code     0  startup_gd32f10x_hd.o(.text)
    EXTI4_IRQHandler                         0x08000253   Thumb Code     0  startup_gd32f10x_hd.o(.text)
    EXTI5_9_IRQHandler                       0x08000253   Thumb Code     0  startup_gd32f10x_hd.o(.text)
    FMC_IRQHandler                           0x08000253   Thumb Code     0  startup_gd32f10x_hd.o(.text)
    I2C0_ER_IRQHandler                       0x08000253   Thumb Code     0  startup_gd32f10x_hd.o(.text)
    I2C0_EV_IRQHandler                       0x08000253   Thumb Code     0  startup_gd32f10x_hd.o(.text)
    I2C1_ER_IRQHandler                       0x08000253   Thumb Code     0  startup_gd32f10x_hd.o(.text)
    I2C1_EV_IRQHandler                       0x08000253   Thumb Code     0  startup_gd32f10x_hd.o(.text)
    LVD_IRQHandler                           0x08000253   Thumb Code     0  startup_gd32f10x_hd.o(.text)
    RCU_IRQHandler                           0x08000253   Thumb Code     0  startup_gd32f10x_hd.o(.text)
    RTC_Alarm_IRQHandler                     0x08000253   Thumb Code     0  startup_gd32f10x_hd.o(.text)
    RTC_IRQHandler                           0x08000253   Thumb Code     0  startup_gd32f10x_hd.o(.text)
    SDIO_IRQHandler                          0x08000253   Thumb Code     0  startup_gd32f10x_hd.o(.text)
    SPI0_IRQHandler                          0x08000253   Thumb Code     0  startup_gd32f10x_hd.o(.text)
    SPI1_IRQHandler                          0x08000253   Thumb Code     0  startup_gd32f10x_hd.o(.text)
    SPI2_IRQHandler                          0x08000253   Thumb Code     0  startup_gd32f10x_hd.o(.text)
    TAMPER_IRQHandler                        0x08000253   Thumb Code     0  startup_gd32f10x_hd.o(.text)
    TIMER0_BRK_IRQHandler                    0x08000253   Thumb Code     0  startup_gd32f10x_hd.o(.text)
    TIMER0_Channel_IRQHandler                0x08000253   Thumb Code     0  startup_gd32f10x_hd.o(.text)
    TIMER0_TRG_CMT_IRQHandler                0x08000253   Thumb Code     0  startup_gd32f10x_hd.o(.text)
    TIMER2_IRQHandler                        0x08000253   Thumb Code     0  startup_gd32f10x_hd.o(.text)
    TIMER3_IRQHandler                        0x08000253   Thumb Code     0  startup_gd32f10x_hd.o(.text)
    TIMER4_IRQHandler                        0x08000253   Thumb Code     0  startup_gd32f10x_hd.o(.text)
    TIMER6_IRQHandler                        0x08000253   Thumb Code     0  startup_gd32f10x_hd.o(.text)
    TIMER7_BRK_IRQHandler                    0x08000253   Thumb Code     0  startup_gd32f10x_hd.o(.text)
    TIMER7_Channel_IRQHandler                0x08000253   Thumb Code     0  startup_gd32f10x_hd.o(.text)
    TIMER7_TRG_CMT_IRQHandler                0x08000253   Thumb Code     0  startup_gd32f10x_hd.o(.text)
    TIMER7_UP_IRQHandler                     0x08000253   Thumb Code     0  startup_gd32f10x_hd.o(.text)
    UART4_IRQHandler                         0x08000253   Thumb Code     0  startup_gd32f10x_hd.o(.text)
    USBD_HP_CAN0_TX_IRQHandler               0x08000253   Thumb Code     0  startup_gd32f10x_hd.o(.text)
    USBD_LP_CAN0_RX0_IRQHandler              0x08000253   Thumb Code     0  startup_gd32f10x_hd.o(.text)
    USBD_WKUP_IRQHandler                     0x08000253   Thumb Code     0  startup_gd32f10x_hd.o(.text)
    WWDGT_IRQHandler                         0x08000253   Thumb Code     0  startup_gd32f10x_hd.o(.text)
    __user_initial_stackheap                 0x08000255   Thumb Code    10  startup_gd32f10x_hd.o(.text)
    __2sprintf                               0x08000279   Thumb Code    34  noretval__2sprintf.o(.text)
    _printf_pre_padding                      0x080002a1   Thumb Code    44  _printf_pad.o(.text)
    _printf_post_padding                     0x080002cd   Thumb Code    34  _printf_pad.o(.text)
    _printf_int_dec                          0x080002f1   Thumb Code   104  _printf_dec.o(.text)
    __printf                                 0x08000369   Thumb Code   308  __printf_flags_wp.o(.text)
    __0sscanf                                0x080004a1   Thumb Code    52  __0sscanf.o(.text)
    memcmp                                   0x080004dd   Thumb Code    88  memcmp.o(.text)
    strlen                                   0x08000535   Thumb Code    62  strlen.o(.text)
    __aeabi_memcpy                           0x08000573   Thumb Code     0  rt_memcpy_v6.o(.text)
    __rt_memcpy                              0x08000573   Thumb Code   138  rt_memcpy_v6.o(.text)
    _memcpy_lastbytes                        0x080005d9   Thumb Code     0  rt_memcpy_v6.o(.text)
    __aeabi_memcpy4                          0x080005fd   Thumb Code     0  rt_memcpy_w.o(.text)
    __aeabi_memcpy8                          0x080005fd   Thumb Code     0  rt_memcpy_w.o(.text)
    __rt_memcpy_w                            0x080005fd   Thumb Code   100  rt_memcpy_w.o(.text)
    _memcpy_lastbytes_aligned                0x08000645   Thumb Code     0  rt_memcpy_w.o(.text)
    __aeabi_memclr                           0x08000661   Thumb Code     0  rt_memclr.o(.text)
    __rt_memclr                              0x08000661   Thumb Code    68  rt_memclr.o(.text)
    _memset                                  0x08000665   Thumb Code     0  rt_memclr.o(.text)
    __aeabi_memclr4                          0x080006a5   Thumb Code     0  rt_memclr_w.o(.text)
    __aeabi_memclr8                          0x080006a5   Thumb Code     0  rt_memclr_w.o(.text)
    __rt_memclr_w                            0x080006a5   Thumb Code    78  rt_memclr_w.o(.text)
    _memset_w                                0x080006a9   Thumb Code     0  rt_memclr_w.o(.text)
    __use_two_region_memory                  0x080006f3   Thumb Code     2  heapauxi.o(.text)
    __rt_heap_escrow$2region                 0x080006f5   Thumb Code     2  heapauxi.o(.text)
    __rt_heap_expand$2region                 0x080006f7   Thumb Code     2  heapauxi.o(.text)
    _printf_int_common                       0x080006f9   Thumb Code   178  _printf_intcommon.o(.text)
    __lib_sel_fp_printf                      0x080007ab   Thumb Code     2  _printf_fp_dec.o(.text)
    _printf_fp_dec_real                      0x0800095d   Thumb Code   620  _printf_fp_dec.o(.text)
    _printf_char_common                      0x08000bd3   Thumb Code    32  _printf_char_common.o(.text)
    _sputc                                   0x08000bf9   Thumb Code    10  _sputc.o(.text)
    _scanf_really_real                       0x08000e51   Thumb Code   684  scanf_fp.o(.text)
    __vfscanf_char                           0x08001109   Thumb Code    24  scanf_char.o(.text)
    _sgetc                                   0x08001129   Thumb Code    30  _sgetc.o(.text)
    _sbackspace                              0x08001147   Thumb Code    34  _sgetc.o(.text)
    __rt_locale                              0x08001169   Thumb Code     8  rt_locale_intlibspace.o(.text)
    __aeabi_errno_addr                       0x08001171   Thumb Code     8  rt_errno_addr_intlibspace.o(.text)
    __errno$intlibspace                      0x08001171   Thumb Code     0  rt_errno_addr_intlibspace.o(.text)
    __rt_errno_addr$intlibspace              0x08001171   Thumb Code     0  rt_errno_addr_intlibspace.o(.text)
    _ll_udiv10                               0x08001179   Thumb Code   138  lludiv10.o(.text)
    isspace                                  0x08001203   Thumb Code    18  isspace.o(.text)
    _printf_fp_infnan                        0x08001215   Thumb Code   112  _printf_fp_infnan.o(.text)
    __vfscanf                                0x08001295   Thumb Code   880  _scanf.o(.text)
    _btod_etento                             0x08001609   Thumb Code   224  bigflt0.o(.text)
    __user_libspace                          0x080016ed   Thumb Code     8  libspace.o(.text)
    __user_perproc_libspace                  0x080016ed   Thumb Code     0  libspace.o(.text)
    __user_perthread_libspace                0x080016ed   Thumb Code     0  libspace.o(.text)
    __user_setup_stackheap                   0x080016f5   Thumb Code    74  sys_stackheap_outer.o(.text)
    __rt_ctype_table                         0x08001741   Thumb Code    16  rt_ctype_table.o(.text)
    __read_errno                             0x08001751   Thumb Code    10  _rserrno.o(.text)
    __set_errno                              0x0800175b   Thumb Code    12  _rserrno.o(.text)
    _scanf_really_hex_real                   0x08001769   Thumb Code   786  scanf_hexfp.o(.text)
    _scanf_really_infnan                     0x08001a89   Thumb Code   292  scanf_infnan.o(.text)
    exit                                     0x08001bbd   Thumb Code    18  exit.o(.text)
    strcmp                                   0x08001bd1   Thumb Code   128  strcmpv7m.o(.text)
    __aeabi_llsl                             0x08001c51   Thumb Code     0  llshl.o(.text)
    _ll_shift_l                              0x08001c51   Thumb Code    38  llshl.o(.text)
    _chval                                   0x08001c77   Thumb Code    28  _chval.o(.text)
    _sys_exit                                0x08001c95   Thumb Code     8  sys_exit.o(.text)
    __I$use$semihosting                      0x08001ca1   Thumb Code     0  use_no_semi.o(.text)
    __use_no_semihosting_swi                 0x08001ca1   Thumb Code     2  use_no_semi.o(.text)
    __semihosting_library_function           0x08001ca3   Thumb Code     0  indicate_semi.o(.text)
    _btod_d2e                                0x08001ca3   Thumb Code    62  btod.o(CL$$btod_d2e)
    _d2e_denorm_low                          0x08001ce1   Thumb Code    70  btod.o(CL$$btod_d2e_denorm_low)
    _d2e_norm_op1                            0x08001d27   Thumb Code    96  btod.o(CL$$btod_d2e_norm_op1)
    __btod_div_common                        0x08001d87   Thumb Code   696  btod.o(CL$$btod_div_common)
    _e2d                                     0x080020c1   Thumb Code   122  btod.o(CL$$btod_e2d)
    _e2e                                     0x08002145   Thumb Code   220  btod.o(CL$$btod_e2e)
    _btod_ediv                               0x08002221   Thumb Code    42  btod.o(CL$$btod_ediv)
    _btod_edivd                              0x0800224b   Thumb Code    42  btod.o(CL$$btod_edivd)
    _btod_emul                               0x08002275   Thumb Code    42  btod.o(CL$$btod_emul)
    _btod_emuld                              0x0800229f   Thumb Code    42  btod.o(CL$$btod_emuld)
    __btod_mult_common                       0x080022c9   Thumb Code   580  btod.o(CL$$btod_mult_common)
    ADC_GetVolPer                            0x0800250d   Thumb Code    54  bsp_adc.o(i.ADC_GetVolPer)
    BEEP_SetState                            0x080025d5   Thumb Code    24  bsp_gpio.o(i.BEEP_SetState)
    BSP_ADC_Init                             0x080025f1   Thumb Code    12  bsp_adc.o(i.BSP_ADC_Init)
    BSP_EEPROM_Init                          0x080025fd   Thumb Code    30  bsp_eeprom.o(i.BSP_EEPROM_Init)
    BSP_GPIO_Init                            0x08002621   Thumb Code   250  bsp_gpio.o(i.BSP_GPIO_Init)
    BSP_Init                                 0x08002729   Thumb Code    46  main.o(i.BSP_Init)
    BSP_Key_Init                             0x08002759   Thumb Code    76  bsp_key.o(i.BSP_Key_Init)
    BSP_PWM_Init                             0x080027a9   Thumb Code   164  bsp_pwm.o(i.BSP_PWM_Init)
    BSP_RTC_Init                             0x08002855   Thumb Code    60  bsp_rtc.o(i.BSP_RTC_Init)
    BSP_TIM_Init                             0x08002895   Thumb Code    16  bsp_timer.o(i.BSP_TIM_Init)
    BSP_Uart_Init                            0x080028a5   Thumb Code   348  bsp_uart.o(i.BSP_Uart_Init)
    BeepStateProcess                         0x08002a15   Thumb Code   162  task_status.o(i.BeepStateProcess)
    BubbleSort                               0x08002ad5   Thumb Code    64  task_dose.o(i.BubbleSort)
    BusFault_Handler                         0x08002b15   Thumb Code     4  gd32f10x_it.o(i.BusFault_Handler)
    Byte_BCDToBin                            0x08002b19   Thumb Code    20  sys.o(i.Byte_BCDToBin)
    Byte_BinToBCD                            0x08002b2d   Thumb Code    30  sys.o(i.Byte_BinToBCD)
    CHG_GetChgState                          0x08002b4d   Thumb Code   102  bsp_gpio.o(i.CHG_GetChgState)
    CHG_SetChg                               0x08002bbd   Thumb Code    24  bsp_gpio.o(i.CHG_SetChg)
    CHG_plugCheck                            0x08002bd9   Thumb Code    10  bsp_gpio.o(i.CHG_plugCheck)
    CalcDose                                 0x08002be9   Thumb Code    50  dose.o(i.CalcDose)
    ChgStateProcess                          0x08002c29   Thumb Code    78  task_status.o(i.ChgStateProcess)
    DebugDataParse                           0x08002c7d   Thumb Code    26  task_com.o(i.DebugDataParse)
    DebugMon_Handler                         0x08002c9d   Thumb Code     2  gd32f10x_it.o(i.DebugMon_Handler)
    DetectoCom                               0x08002ca1   Thumb Code   176  task_com.o(i.DetectoCom)
    Display_CNT                              0x08002d75   Thumb Code    64  display.o(i.Display_CNT)
    Display_ProgressBar                      0x08002db9   Thumb Code   104  display.o(i.Display_ProgressBar)
    Display_bat                              0x08002e2d   Thumb Code    42  display.o(i.Display_bat)
    Display_brightness                       0x08002e5d   Thumb Code    98  display.o(i.Display_brightness)
    Display_dose                             0x08002ec5   Thumb Code   224  display.o(i.Display_dose)
    Display_doseVal                          0x08002fc9   Thumb Code   332  display.o(i.Display_doseVal)
    Display_setDeadtime                      0x08003155   Thumb Code   242  display.o(i.Display_setDeadtime)
    Display_setDtFactor                      0x08003247   Thumb Code   164  display.o(i.Display_setDtFactor)
    Display_setFactor                        0x080032eb   Thumb Code   116  display.o(i.Display_setFactor)
    Display_setWarnVal                       0x08003361   Thumb Code   314  display.o(i.Display_setWarnVal)
    Display_statusBar                        0x080034b1   Thumb Code    68  display.o(i.Display_statusBar)
    Display_unitParam                        0x08003505   Thumb Code    86  display.o(i.Display_unitParam)
    EE_Ack                                   0x08003571   Thumb Code    52  bsp_eeprom.o(i.EE_Ack)
    EE_NAck                                  0x080035b5   Thumb Code    42  bsp_eeprom.o(i.EE_NAck)
    EE_ReadByte                              0x080035e5   Thumb Code    66  bsp_eeprom.o(i.EE_ReadByte)
    EE_SendByte                              0x0800362d   Thumb Code    88  bsp_eeprom.o(i.EE_SendByte)
    EE_Start                                 0x08003689   Thumb Code    48  bsp_eeprom.o(i.EE_Start)
    EE_Stop                                  0x080036bd   Thumb Code    36  bsp_eeprom.o(i.EE_Stop)
    EE_WaitAck                               0x080036e5   Thumb Code    62  bsp_eeprom.o(i.EE_WaitAck)
    ExtDoseCalc                              0x08003729   Thumb Code   338  task_dose.o(i.ExtDoseCalc)
    GUI_Refresh                              0x08003895   Thumb Code    20  gui.o(i.GUI_Refresh)
    GUI_SetBat                               0x080038ad   Thumb Code   256  gui.o(i.GUI_SetBat)
    GUI_SetChar1608                          0x080039b9   Thumb Code   254  gui.o(i.GUI_SetChar1608)
    GUI_SetChar1616                          0x08003ac1   Thumb Code   194  gui.o(i.GUI_SetChar1616)
    GUI_SetChar2412                          0x08003b8d   Thumb Code   254  gui.o(i.GUI_SetChar2412)
    GUI_SetChar2424                          0x08003c95   Thumb Code   194  gui.o(i.GUI_SetChar2424)
    GUI_SetChar3216                          0x08003d61   Thumb Code   254  gui.o(i.GUI_SetChar3216)
    GUI_SetChar4824                          0x08003e69   Thumb Code   252  gui.o(i.GUI_SetChar4824)
    GUI_SetFillRect                          0x08003f6d   Thumb Code    42  gui.o(i.GUI_SetFillRect)
    GUI_SetLine                              0x08003f99   Thumb Code   358  gui.o(i.GUI_SetLine)
    GUI_SetRect                              0x08004105   Thumb Code    66  gui.o(i.GUI_SetRect)
    GUI_SetString1608                        0x08004147   Thumb Code    52  gui.o(i.GUI_SetString1608)
    GUI_SetString1616                        0x0800417b   Thumb Code    82  gui.o(i.GUI_SetString1616)
    GUI_SetString2412                        0x080041cd   Thumb Code    52  gui.o(i.GUI_SetString2412)
    GUI_SetString2424                        0x08004201   Thumb Code    82  gui.o(i.GUI_SetString2424)
    GUI_SetString3216                        0x08004253   Thumb Code    52  gui.o(i.GUI_SetString3216)
    GUI_SetString4824                        0x08004287   Thumb Code    52  gui.o(i.GUI_SetString4824)
    GetAdcVal                                0x080042bd   Thumb Code    32  bsp_adc.o(i.GetAdcVal)
    GetChgState                              0x080042e1   Thumb Code     6  task_status.o(i.GetChgState)
    GetDoseUnit                              0x080042ed   Thumb Code    22  display.o(i.GetDoseUnit)
    Get_BatValueSOC                          0x08004309   Thumb Code   286  bsp_adc.o(i.Get_BatValueSOC)
    Get_RTC_Time                             0x0800443d   Thumb Code    88  bsp_rtc.o(i.Get_RTC_Time)
    HMI_start                                0x080044b1   Thumb Code    52  task_gui.o(i.HMI_start)
    HZ16_to_index                            0x080044e5   Thumb Code   872  gui.o(i.HZ16_to_index)
    HZ24_to_index                            0x0800484d   Thumb Code   666  gui.o(i.HZ24_to_index)
    HardFault_Handler                        0x08004ae7   Thumb Code     4  gd32f10x_it.o(i.HardFault_Handler)
    IntDoseCalc                              0x08004aed   Thumb Code   208  task_dose.o(i.IntDoseCalc)
    KeyGetState                              0x08004bd9   Thumb Code     6  bsp_key.o(i.KeyGetState)
    LCD_FillData                             0x08004be5   Thumb Code    48  bsp_lcd.o(i.LCD_FillData)
    LCD_Init                                 0x08004c15   Thumb Code   438  bsp_lcd.o(i.LCD_Init)
    LCD_clear                                0x08004dcb   Thumb Code    58  bsp_lcd.o(i.LCD_clear)
    LCD_delay                                0x08004e05   Thumb Code    22  bsp_lcd.o(i.LCD_delay)
    LCD_reset                                0x08004e1d   Thumb Code    42  bsp_lcd.o(i.LCD_reset)
    LCD_set_window                           0x08004e4d   Thumb Code    72  bsp_lcd.o(i.LCD_set_window)
    LCD_write                                0x08004e95   Thumb Code    46  bsp_lcd.o(i.LCD_write)
    LED_SetState                             0x08004ec9   Thumb Code    66  bsp_gpio.o(i.LED_SetState)
    LedStateProcess                          0x08004f11   Thumb Code    96  task_status.o(i.LedStateProcess)
    MemManage_Handler                        0x08004f75   Thumb Code     4  gd32f10x_it.o(i.MemManage_Handler)
    NMI_Handler                              0x08004f79   Thumb Code     2  gd32f10x_it.o(i.NMI_Handler)
    PWR_shutdown                             0x08004fa5   Thumb Code    10  bsp_gpio.o(i.PWR_shutdown)
    PulseCntGet                              0x08004fb5   Thumb Code    66  bsp_timer.o(i.PulseCntGet)
    RTC_Ack                                  0x0800500d   Thumb Code    44  bsp_rtc.o(i.RTC_Ack)
    RTC_NAck                                 0x08005049   Thumb Code    36  bsp_rtc.o(i.RTC_NAck)
    RTC_Read                                 0x08005071   Thumb Code   100  bsp_rtc.o(i.RTC_Read)
    RTC_ReadByte                             0x080050d5   Thumb Code    62  bsp_rtc.o(i.RTC_ReadByte)
    RTC_SendByte                             0x08005119   Thumb Code    80  bsp_rtc.o(i.RTC_SendByte)
    RTC_Start                                0x0800516d   Thumb Code    42  bsp_rtc.o(i.RTC_Start)
    RTC_Stop                                 0x0800519d   Thumb Code    32  bsp_rtc.o(i.RTC_Stop)
    RTC_WaitAck                              0x080051c1   Thumb Code    56  bsp_rtc.o(i.RTC_WaitAck)
    RTC_Write                                0x080051fd   Thumb Code    78  bsp_rtc.o(i.RTC_Write)
    SYS_Param_Init                           0x0800524d   Thumb Code   388  task_manage.o(i.SYS_Param_Init)
    SetLcdBacklight                          0x08005405   Thumb Code    12  bsp_pwm.o(i.SetLcdBacklight)
    Set_RTC_Time                             0x08005415   Thumb Code    94  bsp_rtc.o(i.Set_RTC_Time)
    SysTick_Handler                          0x08005473   Thumb Code     8  gd32f10x_it.o(i.SysTick_Handler)
    SystemInit                               0x0800547d   Thumb Code   196  system_gd32f10x.o(i.SystemInit)
    TIM0_Init                                0x08005551   Thumb Code   154  bsp_timer.o(i.TIM0_Init)
    TIM1_Init                                0x080055f5   Thumb Code   188  bsp_timer.o(i.TIM1_Init)
    TIM5_Init                                0x080056b5   Thumb Code    96  bsp_timer.o(i.TIM5_Init)
    TIMER0_UP_IRQHandler                     0x08005719   Thumb Code    32  bsp_timer.o(i.TIMER0_UP_IRQHandler)
    TIMER1_IRQHandler                        0x08005741   Thumb Code    32  bsp_timer.o(i.TIMER1_IRQHandler)
    TIMER5_IRQHandler                        0x08005765   Thumb Code    32  bsp_timer.o(i.TIMER5_IRQHandler)
    Task_HMI                                 0x0800578d   Thumb Code   254  task_gui.o(i.Task_HMI)
    Task_bat                                 0x080058a1   Thumb Code   128  task_status.o(i.Task_bat)
    Task_com                                 0x08005931   Thumb Code    36  task_com.o(i.Task_com)
    Task_dose                                0x08005959   Thumb Code    16  task_dose.o(i.Task_dose)
    Task_manage                              0x08005969   Thumb Code    16  task_manage.o(i.Task_manage)
    Task_status                              0x0800597d   Thumb Code   106  task_status.o(i.Task_status)
    TimerGetCnt                              0x080059f9   Thumb Code     6  bsp_timer.o(i.TimerGetCnt)
    UART3_IRQHandler                         0x08005a05   Thumb Code    10  gd32f10x_it.o(i.UART3_IRQHandler)
    UART_IRQn                                0x08005a15   Thumb Code   204  bsp_uart.o(i.UART_IRQn)
    USART0_IRQHandler                        0x08005af1   Thumb Code    10  gd32f10x_it.o(i.USART0_IRQHandler)
    USART1_IRQHandler                        0x08005b01   Thumb Code     2  gd32f10x_it.o(i.USART1_IRQHandler)
    USART2_IRQHandler                        0x08005b05   Thumb Code    10  gd32f10x_it.o(i.USART2_IRQHandler)
    Uart3SetBaud                             0x08005b15   Thumb Code    86  bsp_uart.o(i.Uart3SetBaud)
    UsageFault_Handler                       0x08005b71   Thumb Code     4  gd32f10x_it.o(i.UsageFault_Handler)
    __ARM_fpclassify                         0x08005b75   Thumb Code    40  fpclassify.o(i.__ARM_fpclassify)
    __mathlib_dbl_overflow                   0x08005b9d   Thumb Code    14  dunder.o(i.__mathlib_dbl_overflow)
    __mathlib_dbl_underflow                  0x08005bad   Thumb Code    10  dunder.o(i.__mathlib_dbl_underflow)
    __mathlib_narrow                         0x08005bbd   Thumb Code    16  narrow.o(i.__mathlib_narrow)
    __mathlib_tofloat                        0x08005bcd   Thumb Code   184  narrow.o(i.__mathlib_tofloat)
    __support_ldexp                          0x08005c89   Thumb Code    22  ldexp.o(i.__support_ldexp)
    _is_digit                                0x08005c9f   Thumb Code    14  __printf_wp.o(i._is_digit)
    adc_calibration_enable                   0x08005cad   Thumb Code    42  gd32f10x_adc.o(i.adc_calibration_enable)
    adc_channel_length_config                0x08005cd7   Thumb Code    70  gd32f10x_adc.o(i.adc_channel_length_config)
    adc_data_alignment_config                0x08005d1d   Thumb Code    22  gd32f10x_adc.o(i.adc_data_alignment_config)
    adc_deinit                               0x08005d35   Thumb Code    84  gd32f10x_adc.o(i.adc_deinit)
    adc_enable                               0x08005d8d   Thumb Code    18  gd32f10x_adc.o(i.adc_enable)
    adc_external_trigger_config              0x08005d9f   Thumb Code    62  gd32f10x_adc.o(i.adc_external_trigger_config)
    adc_external_trigger_source_config       0x08005ddd   Thumb Code    48  gd32f10x_adc.o(i.adc_external_trigger_source_config)
    adc_flag_get                             0x08005e0d   Thumb Code    14  gd32f10x_adc.o(i.adc_flag_get)
    adc_mode_config                          0x08005e1d   Thumb Code    22  gd32f10x_adc.o(i.adc_mode_config)
    adc_regular_channel_config               0x08005e39   Thumb Code   172  gd32f10x_adc.o(i.adc_regular_channel_config)
    adc_regular_data_read                    0x08005ee5   Thumb Code     8  gd32f10x_adc.o(i.adc_regular_data_read)
    adc_software_trigger_enable              0x08005eed   Thumb Code    30  gd32f10x_adc.o(i.adc_software_trigger_enable)
    adc_special_function_config              0x08005f0b   Thumb Code    90  gd32f10x_adc.o(i.adc_special_function_config)
    add_parity_bit                           0x08005fbd   Thumb Code    82  bsp_uart.o(i.add_parity_bit)
    bsp_GetKey                               0x08006011   Thumb Code    46  bsp_key.o(i.bsp_GetKey)
    bsp_KeyScan                              0x08006045   Thumb Code   154  bsp_key.o(i.bsp_KeyScan)
    bsp_PutKey                               0x080060ed   Thumb Code    28  bsp_key.o(i.bsp_PutKey)
    comUartSetup                             0x0800610d   Thumb Code    54  task_manage.o(i.comUartSetup)
    delay_ms                                 0x08006369   Thumb Code    24  sys.o(i.delay_ms)
    delay_us                                 0x08006381   Thumb Code    24  sys.o(i.delay_us)
    display_time                             0x08006399   Thumb Code   102  display.o(i.display_time)
    eepromDataRefresh                        0x08006421   Thumb Code   152  task_manage.o(i.eepromDataRefresh)
    eepromSetStatus                          0x080064d9   Thumb Code    12  task_manage.o(i.eepromSetStatus)
    frexp                                    0x080064e9   Thumb Code    80  frexp.o(i.frexp)
    get_list_avage                           0x0800658d   Thumb Code    68  task_dose.o(i.get_list_avage)
    gpio_init                                0x080065d1   Thumb Code   172  gd32f10x_gpio.o(i.gpio_init)
    gpio_input_bit_get                       0x0800667d   Thumb Code    16  gd32f10x_gpio.o(i.gpio_input_bit_get)
    gpio_pin_remap_config                    0x0800668d   Thumb Code   138  gd32f10x_gpio.o(i.gpio_pin_remap_config)
    lcd_gpio_init                            0x0800671d   Thumb Code    88  bsp_lcd.o(i.lcd_gpio_init)
    lcd_spi_init                             0x0800677d   Thumb Code    60  bsp_lcd.o(i.lcd_spi_init)
    ldexp                                    0x080067bd   Thumb Code   116  ldexp.o(i.ldexp)
    list_add                                 0x08006831   Thumb Code    26  task_dose.o(i.list_add)
    list_refresh                             0x0800684b   Thumb Code    22  task_dose.o(i.list_refresh)
    main                                     0x08006861   Thumb Code   190  main.o(i.main)
    menu01                                   0x08006939   Thumb Code    94  task_gui.o(i.menu01)
    menu011                                  0x080069c5   Thumb Code   190  task_gui.o(i.menu011)
    menu0111                                 0x08006add   Thumb Code   302  task_gui.o(i.menu0111)
    menu012                                  0x08006c75   Thumb Code   242  task_gui.o(i.menu012)
    menu0121                                 0x08006dc9   Thumb Code   872  task_gui.o(i.menu0121)
    menu013                                  0x080071a5   Thumb Code   220  task_gui.o(i.menu013)
    menu0131                                 0x080072dd   Thumb Code   890  task_gui.o(i.menu0131)
    menu014                                  0x080076c5   Thumb Code   174  task_gui.o(i.menu014)
    menu0141                                 0x080077c5   Thumb Code   368  task_gui.o(i.menu0141)
    menu015                                  0x08007995   Thumb Code   196  task_gui.o(i.menu015)
    menu0151                                 0x08007aad   Thumb Code   392  task_gui.o(i.menu0151)
    menu02                                   0x08007c99   Thumb Code    94  task_gui.o(i.menu02)
    menu03                                   0x08007d25   Thumb Code   480  task_gui.o(i.menu03)
    menu1                                    0x08007f3d   Thumb Code   186  task_gui.o(i.menu1)
    menu11                                   0x08008051   Thumb Code   186  task_gui.o(i.menu11)
    menu111                                  0x08008165   Thumb Code   588  task_gui.o(i.menu111)
    menu12                                   0x080083f1   Thumb Code   186  task_gui.o(i.menu12)
    menu121                                  0x08008505   Thumb Code   598  task_gui.o(i.menu121)
    menu2                                    0x080087a5   Thumb Code   202  task_gui.o(i.menu2)
    menu21                                   0x080088e5   Thumb Code   202  task_gui.o(i.menu21)
    menu211                                  0x08008a25   Thumb Code   218  task_gui.o(i.menu211)
    menu22                                   0x08008b29   Thumb Code   202  task_gui.o(i.menu22)
    menu221                                  0x08008c69   Thumb Code   310  task_gui.o(i.menu221)
    menu23                                   0x08008de9   Thumb Code   202  task_gui.o(i.menu23)
    menu231                                  0x08008f29   Thumb Code   456  task_gui.o(i.menu231)
    menu3                                    0x08009131   Thumb Code   172  task_gui.o(i.menu3)
    menu31                                   0x0800923d   Thumb Code   160  task_gui.o(i.menu31)
    menu311                                  0x08009339   Thumb Code   198  task_gui.o(i.menu311)
    menu4                                    0x0800943d   Thumb Code   220  task_gui.o(i.menu4)
    menu41                                   0x08009599   Thumb Code   220  task_gui.o(i.menu41)
    menu42                                   0x080096f5   Thumb Code   220  task_gui.o(i.menu42)
    menu43                                   0x08009851   Thumb Code   220  task_gui.o(i.menu43)
    menu44                                   0x080099ad   Thumb Code   220  task_gui.o(i.menu44)
    menu5                                    0x08009b09   Thumb Code   172  task_gui.o(i.menu5)
    menu51                                   0x08009c11   Thumb Code   172  task_gui.o(i.menu51)
    menu511                                  0x08009d19   Thumb Code   398  task_gui.o(i.menu511)
    menu61                                   0x08009ee1   Thumb Code   126  task_gui.o(i.menu61)
    menu611                                  0x08009f9d   Thumb Code    84  task_gui.o(i.menu611)
    menu62                                   0x0800a00d   Thumb Code   126  task_gui.o(i.menu62)
    menu621                                  0x0800a0c9   Thumb Code   388  task_gui.o(i.menu621)
    menu63                                   0x0800a289   Thumb Code   126  task_gui.o(i.menu63)
    menu631                                  0x0800a345   Thumb Code   546  task_gui.o(i.menu631)
    menu_main1                               0x0800a5a5   Thumb Code   208  task_gui.o(i.menu_main1)
    menu_main2                               0x0800a69d   Thumb Code   210  task_gui.o(i.menu_main2)
    menu_main3                               0x0800a7ad   Thumb Code     2  task_gui.o(i.menu_main3)
    menu_shutdown                            0x0800a7af   Thumb Code    80  task_gui.o(i.menu_shutdown)
    nvic_irq_enable                          0x0800a801   Thumb Code   162  gd32f10x_misc.o(i.nvic_irq_enable)
    nvic_priority_group_set                  0x0800a8ad   Thumb Code    10  gd32f10x_misc.o(i.nvic_priority_group_set)
    nvic_vector_table_set                    0x0800a8c1   Thumb Code    16  gd32f10x_misc.o(i.nvic_vector_table_set)
    rcu_adc_clock_config                     0x0800a8d9   Thumb Code    64  gd32f10x_rcu.o(i.rcu_adc_clock_config)
    rcu_clock_freq_get                       0x0800a921   Thumb Code   264  gd32f10x_rcu.o(i.rcu_clock_freq_get)
    rcu_periph_clock_enable                  0x0800aa45   Thumb Code    28  gd32f10x_rcu.o(i.rcu_periph_clock_enable)
    rcu_periph_reset_disable                 0x0800aa65   Thumb Code    28  gd32f10x_rcu.o(i.rcu_periph_reset_disable)
    rcu_periph_reset_enable                  0x0800aa85   Thumb Code    28  gd32f10x_rcu.o(i.rcu_periph_reset_enable)
    read_eeprom                              0x0800aaa5   Thumb Code   120  bsp_eeprom.o(i.read_eeprom)
    setSystemTick                            0x0800ab1d   Thumb Code    80  sys_config.o(i.setSystemTick)
    spi_enable                               0x0800ab71   Thumb Code    10  gd32f10x_spi.o(i.spi_enable)
    spi_i2s_data_receive                     0x0800ab7b   Thumb Code     8  gd32f10x_spi.o(i.spi_i2s_data_receive)
    spi_i2s_data_transmit                    0x0800ab83   Thumb Code     4  gd32f10x_spi.o(i.spi_i2s_data_transmit)
    spi_i2s_flag_get                         0x0800ab87   Thumb Code    16  gd32f10x_spi.o(i.spi_i2s_flag_get)
    spi_init                                 0x0800ab97   Thumb Code    50  gd32f10x_spi.o(i.spi_init)
    spi_send_byte                            0x0800abc9   Thumb Code    50  bsp_lcd.o(i.spi_send_byte)
    taskTicksInc                             0x0800accd   Thumb Code    12  sys_config.o(i.taskTicksInc)
    timer_auto_reload_shadow_enable          0x0800acdd   Thumb Code    10  gd32f10x_timer.o(i.timer_auto_reload_shadow_enable)
    timer_channel_output_config              0x0800ace9   Thumb Code   484  gd32f10x_timer.o(i.timer_channel_output_config)
    timer_channel_output_mode_config         0x0800aed5   Thumb Code    90  gd32f10x_timer.o(i.timer_channel_output_mode_config)
    timer_channel_output_pulse_value_config  0x0800af2f   Thumb Code    38  gd32f10x_timer.o(i.timer_channel_output_pulse_value_config)
    timer_channel_output_shadow_config       0x0800af55   Thumb Code    90  gd32f10x_timer.o(i.timer_channel_output_shadow_config)
    timer_counter_value_config               0x0800afaf   Thumb Code     4  gd32f10x_timer.o(i.timer_counter_value_config)
    timer_deinit                             0x0800afb5   Thumb Code   210  gd32f10x_timer.o(i.timer_deinit)
    timer_enable                             0x0800b091   Thumb Code    10  gd32f10x_timer.o(i.timer_enable)
    timer_external_clock_mode1_config        0x0800b09b   Thumb Code    32  gd32f10x_timer.o(i.timer_external_clock_mode1_config)
    timer_external_trigger_config            0x0800b0bb   Thumb Code    30  gd32f10x_timer.o(i.timer_external_trigger_config)
    timer_flag_clear                         0x0800b0d9   Thumb Code     6  gd32f10x_timer.o(i.timer_flag_clear)
    timer_init                               0x0800b0e1   Thumb Code   170  gd32f10x_timer.o(i.timer_init)
    timer_input_trigger_source_select        0x0800b1c1   Thumb Code    16  gd32f10x_timer.o(i.timer_input_trigger_source_select)
    timer_interrupt_enable                   0x0800b1d1   Thumb Code     8  gd32f10x_timer.o(i.timer_interrupt_enable)
    timer_interrupt_flag_clear               0x0800b1d9   Thumb Code     6  gd32f10x_timer.o(i.timer_interrupt_flag_clear)
    timer_interrupt_flag_get                 0x0800b1df   Thumb Code    24  gd32f10x_timer.o(i.timer_interrupt_flag_get)
    timer_master_slave_mode_config           0x0800b1f7   Thumb Code    26  gd32f10x_timer.o(i.timer_master_slave_mode_config)
    timer_slave_mode_select                  0x0800b211   Thumb Code    16  gd32f10x_timer.o(i.timer_slave_mode_select)
    timer_struct_para_init                   0x0800b221   Thumb Code    22  gd32f10x_timer.o(i.timer_struct_para_init)
    uart_send_buf                            0x0800b239   Thumb Code   116  bsp_uart.o(i.uart_send_buf)
    usart_baudrate_set                       0x0800b319   Thumb Code   136  gd32f10x_usart.o(i.usart_baudrate_set)
    usart_data_receive                       0x0800b3a9   Thumb Code    10  gd32f10x_usart.o(i.usart_data_receive)
    usart_data_transmit                      0x0800b3b3   Thumb Code     8  gd32f10x_usart.o(i.usart_data_transmit)
    usart_deinit                             0x0800b3bd   Thumb Code   136  gd32f10x_usart.o(i.usart_deinit)
    usart_enable                             0x0800b44d   Thumb Code    10  gd32f10x_usart.o(i.usart_enable)
    usart_flag_get                           0x0800b457   Thumb Code    30  gd32f10x_usart.o(i.usart_flag_get)
    usart_hardware_flow_cts_config           0x0800b475   Thumb Code    20  gd32f10x_usart.o(i.usart_hardware_flow_cts_config)
    usart_hardware_flow_rts_config           0x0800b489   Thumb Code    20  gd32f10x_usart.o(i.usart_hardware_flow_rts_config)
    usart_interrupt_disable                  0x0800b49d   Thumb Code    26  gd32f10x_usart.o(i.usart_interrupt_disable)
    usart_interrupt_enable                   0x0800b4b7   Thumb Code    26  gd32f10x_usart.o(i.usart_interrupt_enable)
    usart_interrupt_flag_clear               0x0800b4d1   Thumb Code    18  gd32f10x_usart.o(i.usart_interrupt_flag_clear)
    usart_interrupt_flag_get                 0x0800b4e3   Thumb Code    56  gd32f10x_usart.o(i.usart_interrupt_flag_get)
    usart_parity_config                      0x0800b51b   Thumb Code    16  gd32f10x_usart.o(i.usart_parity_config)
    usart_receive_config                     0x0800b52b   Thumb Code    16  gd32f10x_usart.o(i.usart_receive_config)
    usart_stop_bit_set                       0x0800b53b   Thumb Code    16  gd32f10x_usart.o(i.usart_stop_bit_set)
    usart_transmit_config                    0x0800b54b   Thumb Code    16  gd32f10x_usart.o(i.usart_transmit_config)
    usart_word_length_set                    0x0800b55b   Thumb Code    16  gd32f10x_usart.o(i.usart_word_length_set)
    write_eeprom                             0x0800b56b   Thumb Code   136  bsp_eeprom.o(i.write_eeprom)
    _get_lc_numeric                          0x0800b5f5   Thumb Code    44  lc_numeric_c.o(locale$$code)
    _get_lc_ctype                            0x0800b621   Thumb Code    44  lc_ctype_c.o(locale$$code)
    __aeabi_d2f                              0x0800b64d   Thumb Code     0  d2f.o(x$fpl$d2f)
    _d2f                                     0x0800b64d   Thumb Code    98  d2f.o(x$fpl$d2f)
    __fpl_dcheck_NaN1                        0x0800b6b1   Thumb Code    10  dcheck1.o(x$fpl$dcheck1)
    __fpl_dcmp_Inf                           0x0800b6c1   Thumb Code    24  dcmpi.o(x$fpl$dcmpinf)
    __aeabi_cdcmpeq                          0x0800b6d9   Thumb Code     0  deqf.o(x$fpl$deqf)
    _dcmpeq                                  0x0800b6d9   Thumb Code   120  deqf.o(x$fpl$deqf)
    __aeabi_cdcmple                          0x0800b751   Thumb Code     0  dleqf.o(x$fpl$dleqf)
    _dcmple                                  0x0800b751   Thumb Code   120  dleqf.o(x$fpl$dleqf)
    __fpl_dcmple_InfNaN                      0x0800b7b3   Thumb Code     0  dleqf.o(x$fpl$dleqf)
    __aeabi_dmul                             0x0800b7c9   Thumb Code     0  dmul.o(x$fpl$dmul)
    _dmul                                    0x0800b7c9   Thumb Code   332  dmul.o(x$fpl$dmul)
    __fpl_dnaninf                            0x0800b91d   Thumb Code   156  dnaninf.o(x$fpl$dnaninf)
    __fpl_dretinf                            0x0800b9b9   Thumb Code    12  dretinf.o(x$fpl$dretinf)
    __aeabi_cdrcmple                         0x0800b9c5   Thumb Code     0  drleqf.o(x$fpl$drleqf)
    _drcmple                                 0x0800b9c5   Thumb Code   108  drleqf.o(x$fpl$drleqf)
    __aeabi_f2d                              0x0800ba31   Thumb Code     0  f2d.o(x$fpl$f2d)
    _f2d                                     0x0800ba31   Thumb Code    86  f2d.o(x$fpl$f2d)
    __aeabi_fadd                             0x0800ba89   Thumb Code     0  faddsub_clz.o(x$fpl$fadd)
    _fadd                                    0x0800ba89   Thumb Code   196  faddsub_clz.o(x$fpl$fadd)
    __fpl_fcmp_Inf                           0x0800bb4d   Thumb Code    24  fcmpi.o(x$fpl$fcmpinf)
    __aeabi_fdiv                             0x0800bb65   Thumb Code     0  fdiv.o(x$fpl$fdiv)
    _fdiv                                    0x0800bb65   Thumb Code   384  fdiv.o(x$fpl$fdiv)
    __aeabi_cfcmpeq                          0x0800bce9   Thumb Code     0  feqf.o(x$fpl$feqf)
    _fcmpeq                                  0x0800bce9   Thumb Code   104  feqf.o(x$fpl$feqf)
    __aeabi_f2uiz                            0x0800bd51   Thumb Code     0  ffixu.o(x$fpl$ffixu)
    _ffixu                                   0x0800bd51   Thumb Code    62  ffixu.o(x$fpl$ffixu)
    __aeabi_ui2f                             0x0800bd91   Thumb Code     0  fflt_clz.o(x$fpl$ffltu)
    _ffltu                                   0x0800bd91   Thumb Code    38  fflt_clz.o(x$fpl$ffltu)
    __aeabi_cfcmple                          0x0800bdb9   Thumb Code     0  fleqf.o(x$fpl$fleqf)
    _fcmple                                  0x0800bdb9   Thumb Code   104  fleqf.o(x$fpl$fleqf)
    __fpl_fcmple_InfNaN                      0x0800be0b   Thumb Code     0  fleqf.o(x$fpl$fleqf)
    __aeabi_fmul                             0x0800be21   Thumb Code     0  fmul.o(x$fpl$fmul)
    _fmul                                    0x0800be21   Thumb Code   258  fmul.o(x$fpl$fmul)
    __fpl_fnaninf                            0x0800bf23   Thumb Code   140  fnaninf.o(x$fpl$fnaninf)
    __fpl_fretinf                            0x0800bfaf   Thumb Code    10  fretinf.o(x$fpl$fretinf)
    __aeabi_cfrcmple                         0x0800bfb9   Thumb Code     0  frleqf.o(x$fpl$frleqf)
    _frcmple                                 0x0800bfb9   Thumb Code    98  frleqf.o(x$fpl$frleqf)
    __aeabi_fsub                             0x0800c01d   Thumb Code     0  faddsub_clz.o(x$fpl$fsub)
    _fsub                                    0x0800c01d   Thumb Code   234  faddsub_clz.o(x$fpl$fsub)
    __ieee_status                            0x0800c107   Thumb Code     6  istatus.o(x$fpl$ieeestatus)
    _printf_fp_dec                           0x0800c10d   Thumb Code     4  printf1.o(x$fpl$printf1)
    __fpl_return_NaN                         0x0800c111   Thumb Code   100  retnan.o(x$fpl$retnan)
    __ARM_scalbn                             0x0800c175   Thumb Code    92  scalbn.o(x$fpl$scalbn)
    _scanf_real                              0x0800c1d1   Thumb Code     4  scanf1.o(x$fpl$scanf1)
    _scanf_hex_real                          0x0800c1d5   Thumb Code     4  scanf2.o(x$fpl$scanf2)
    _scanf_infnan                            0x0800c1d9   Thumb Code     4  scanf2.o(x$fpl$scanf2)
    __fpl_cmpreturn                          0x0800c1dd   Thumb Code    48  trapv.o(x$fpl$trapveneer)
    __I$use$fp                               0x0800c20c   Number         0  usenofp.o(x$fpl$usenofp)
    beepOnTickTable                          0x0800c222   Data          10  task_status.o(.constdata)
    beepOffTickTable                         0x0800c22c   Data          10  task_status.o(.constdata)
    ascii1608                                0x0800c25c   Data        1520  gui.o(.constdata)
    ascii2412                                0x0800c84c   Data        3420  gui.o(.constdata)
    ascii3216                                0x0800d5a8   Data        6080  gui.o(.constdata)
    ascii4824                                0x0800ed68   Data        1728  gui.o(.constdata)
    ascii5628                                0x0800f428   Data        2156  gui.o(.constdata)
    batpic                                   0x0800fc94   Data         572  gui.o(.constdata)
    speakerPic                               0x0800fed0   Data          64  gui.o(.constdata)
    chargePic                                0x0800ff10   Data          64  gui.o(.constdata)
    hanzi16                                  0x0800ff50   Data        2112  gui.o(.constdata)
    hanzi24                                  0x08010790   Data        3528  gui.o(.constdata)
    Region$$Table$$Base                      0x08011600   Number         0  anon$$obj.o(Region$$Table)
    Region$$Table$$Limit                     0x08011620   Number         0  anon$$obj.o(Region$$Table)
    __aeabi_HUGE_VAL                         0x08011620   Data           0  fpconst.o(c$$dinf)
    __aeabi_HUGE_VALL                        0x08011620   Data           0  fpconst.o(c$$dinf)
    __aeabi_INFINITY                         0x08011620   Data           0  fpconst.o(c$$dinf)
    __dInf                                   0x08011620   Data           0  fpconst.o(c$$dinf)
    __huge_val                               0x08011620   Data           0  fpconst.o(c$$dinf)
    __dbl_max                                0x08011628   Data           0  fpconst.o(c$$dmax)
    __ctype                                  0x08011659   Data           0  lc_ctype_c.o(locale$$data)
    SystemCoreClock                          0x20000000   Data           4  system_gd32f10x.o(.data)
    timerCnt                                 0x20000004   Data           4  bsp_timer.o(.data)
    keyPressTimeCnt                          0x20000012   Data           8  bsp_key.o(.data)
    keyList                                  0x2000001c   Data          32  bsp_key.o(.data)
    sys_param                                0x2000003c   Data           4  main.o(.data)
    Voltage                                  0x20000040   Data           1  main.o(.data)
    basicParam                               0x20000042   Data           4  main.o(.data)
    passWord                                 0x20000046   Data           4  main.o(.data)
    pulseCntInt                              0x2000004c   Data           4  main.o(.data)
    pulseCntExt                              0x20000050   Data           4  main.o(.data)
    batVoltPerSmooth                         0x20000054   Data           1  main.o(.data)
    volt                                     0x20000058   Data           4  main.o(.data)
    detectorType                             0x2000005c   Data           1  main.o(.data)
    extDtDoserate                            0x20000060   Data           4  main.o(.data)
    warnRangeRate                            0x20000064   Data           4  main.o(.data)
    warnRangeDose                            0x20000068   Data           4  main.o(.data)
    displayUnit                              0x2000006c   Data           1  main.o(.data)
    brightness                               0x2000006d   Data           1  main.o(.data)
    test                                     0x2000006e   Data           1  main.o(.data)
    x1                                       0x2000006f   Data           1  main.o(.data)
    x2                                       0x20000070   Data           1  main.o(.data)
    y1                                       0x20000071   Data           1  main.o(.data)
    y2                                       0x20000072   Data           1  main.o(.data)
    vad                                      0x20000074   Data           4  main.o(.data)
    g_taskTicks                              0x20000088   Data           4  sys_config.o(.data)
    dtSendCnt                                0x2000008c   Data           1  task_com.o(.data)
    dtRecCnt                                 0x2000008d   Data           1  task_com.o(.data)
    Detector_group                           0x2000008e   Data          80  task_com.o(.data)
    blTime                                   0x200000e2   Data           2  task_gui.o(.data)
    menuList                                 0x200000e4   Data         736  task_gui.o(.data)
    intDoseParam                             0x2000040c   Data          32  task_dose.o(.data)
    realCnt                                  0x2000042c   Data           4  task_dose.o(.data)
    smoothCnt                                0x20000430   Data           4  task_dose.o(.data)
    warnLevel                                0x20000434   Data           1  task_status.o(.data)
    chgState                                 0x20000435   Data           1  task_status.o(.data)
    g_tUart0                                 0x2000045c   Data          28  bsp_uart.o(.bss)
    g_TxBuf0                                 0x20000478   Data         512  bsp_uart.o(.bss)
    g_RxBuf0                                 0x20000678   Data         512  bsp_uart.o(.bss)
    g_tUart3                                 0x20000878   Data          28  bsp_uart.o(.bss)
    g_TxBuf3                                 0x20000894   Data         512  bsp_uart.o(.bss)
    g_RxBuf3                                 0x20000a94   Data         512  bsp_uart.o(.bss)
    keyValList                               0x20000c94   Data          12  bsp_key.o(.bss)
    Chn_Data                                 0x20000f20   Data          28  task_dose.o(.bss)
    ramBuf                                   0x200010f8   Data        4800  gui.o(.bss)
    __libspace_start                         0x200023b8   Data          96  libspace.o(.bss)
    __temporary_stack_top$libspace           0x20002418   Data           0  libspace.o(.bss)



==============================================================================

Memory Map of the image

  Image Entry point : 0x08000131

  Load Region LR_IROM1 (Base: 0x08000000, Size: 0x00011bb8, Max: 0x00040000, ABSOLUTE, COMPRESSED[0x00011a20])

    Execution Region ER_IROM1 (Exec base: 0x08000000, Load base: 0x08000000, Size: 0x0001175c, Max: 0x00040000, ABSOLUTE)

    Exec Addr    Load Addr    Size         Type   Attr      Idx    E Section Name        Object

    0x08000000   0x08000000   0x00000130   Data   RO          133    RESET               startup_gd32f10x_hd.o
    0x08000130   0x08000130   0x00000008   Code   RO         5517  * !!!main             c_w.l(__main.o)
    0x08000138   0x08000138   0x00000034   Code   RO         5894    !!!scatter          c_w.l(__scatter.o)
    0x0800016c   0x0800016c   0x0000005a   Code   RO         5892    !!dczerorl2         c_w.l(__dczerorl2.o)
    0x080001c6   0x080001c6   0x00000002   PAD
    0x080001c8   0x080001c8   0x0000001c   Code   RO         5896    !!handler_zi        c_w.l(__scatter_zi.o)
    0x080001e4   0x080001e4   0x00000000   Code   RO         5498    .ARM.Collect$$_printf_percent$$00000000  c_w.l(_printf_percent.o)
    0x080001e4   0x080001e4   0x00000006   Code   RO         5497    .ARM.Collect$$_printf_percent$$00000003  c_w.l(_printf_f.o)
    0x080001ea   0x080001ea   0x00000006   Code   RO         5496    .ARM.Collect$$_printf_percent$$00000009  c_w.l(_printf_d.o)
    0x080001f0   0x080001f0   0x00000004   Code   RO         5590    .ARM.Collect$$_printf_percent$$00000017  c_w.l(_printf_percent_end.o)
    0x080001f4   0x080001f4   0x00000002   Code   RO         5715    .ARM.Collect$$libinit$$00000000  c_w.l(libinit.o)
    0x080001f6   0x080001f6   0x00000000   Code   RO         5717    .ARM.Collect$$libinit$$00000002  c_w.l(libinit2.o)
    0x080001f6   0x080001f6   0x00000000   Code   RO         5719    .ARM.Collect$$libinit$$00000004  c_w.l(libinit2.o)
    0x080001f6   0x080001f6   0x00000000   Code   RO         5722    .ARM.Collect$$libinit$$0000000A  c_w.l(libinit2.o)
    0x080001f6   0x080001f6   0x00000000   Code   RO         5724    .ARM.Collect$$libinit$$0000000C  c_w.l(libinit2.o)
    0x080001f6   0x080001f6   0x00000000   Code   RO         5726    .ARM.Collect$$libinit$$0000000E  c_w.l(libinit2.o)
    0x080001f6   0x080001f6   0x00000006   Code   RO         5727    .ARM.Collect$$libinit$$0000000F  c_w.l(libinit2.o)
    0x080001fc   0x080001fc   0x00000000   Code   RO         5729    .ARM.Collect$$libinit$$00000011  c_w.l(libinit2.o)
    0x080001fc   0x080001fc   0x0000000c   Code   RO         5730    .ARM.Collect$$libinit$$00000012  c_w.l(libinit2.o)
    0x08000208   0x08000208   0x00000000   Code   RO         5731    .ARM.Collect$$libinit$$00000013  c_w.l(libinit2.o)
    0x08000208   0x08000208   0x00000000   Code   RO         5733    .ARM.Collect$$libinit$$00000015  c_w.l(libinit2.o)
    0x08000208   0x08000208   0x0000000a   Code   RO         5734    .ARM.Collect$$libinit$$00000016  c_w.l(libinit2.o)
    0x08000212   0x08000212   0x00000000   Code   RO         5735    .ARM.Collect$$libinit$$00000017  c_w.l(libinit2.o)
    0x08000212   0x08000212   0x00000000   Code   RO         5737    .ARM.Collect$$libinit$$00000019  c_w.l(libinit2.o)
    0x08000212   0x08000212   0x00000000   Code   RO         5739    .ARM.Collect$$libinit$$0000001B  c_w.l(libinit2.o)
    0x08000212   0x08000212   0x00000000   Code   RO         5741    .ARM.Collect$$libinit$$0000001D  c_w.l(libinit2.o)
    0x08000212   0x08000212   0x00000000   Code   RO         5743    .ARM.Collect$$libinit$$0000001F  c_w.l(libinit2.o)
    0x08000212   0x08000212   0x00000000   Code   RO         5745    .ARM.Collect$$libinit$$00000021  c_w.l(libinit2.o)
    0x08000212   0x08000212   0x00000000   Code   RO         5747    .ARM.Collect$$libinit$$00000023  c_w.l(libinit2.o)
    0x08000212   0x08000212   0x00000000   Code   RO         5749    .ARM.Collect$$libinit$$00000025  c_w.l(libinit2.o)
    0x08000212   0x08000212   0x00000000   Code   RO         5753    .ARM.Collect$$libinit$$0000002C  c_w.l(libinit2.o)
    0x08000212   0x08000212   0x00000000   Code   RO         5755    .ARM.Collect$$libinit$$0000002E  c_w.l(libinit2.o)
    0x08000212   0x08000212   0x00000000   Code   RO         5757    .ARM.Collect$$libinit$$00000030  c_w.l(libinit2.o)
    0x08000212   0x08000212   0x00000000   Code   RO         5759    .ARM.Collect$$libinit$$00000032  c_w.l(libinit2.o)
    0x08000212   0x08000212   0x00000002   Code   RO         5760    .ARM.Collect$$libinit$$00000033  c_w.l(libinit2.o)
    0x08000214   0x08000214   0x00000002   Code   RO         5834    .ARM.Collect$$libshutdown$$00000000  c_w.l(libshutdown.o)
    0x08000216   0x08000216   0x00000000   Code   RO         5847    .ARM.Collect$$libshutdown$$00000002  c_w.l(libshutdown2.o)
    0x08000216   0x08000216   0x00000000   Code   RO         5849    .ARM.Collect$$libshutdown$$00000004  c_w.l(libshutdown2.o)
    0x08000216   0x08000216   0x00000000   Code   RO         5851    .ARM.Collect$$libshutdown$$00000006  c_w.l(libshutdown2.o)
    0x08000216   0x08000216   0x00000000   Code   RO         5854    .ARM.Collect$$libshutdown$$00000009  c_w.l(libshutdown2.o)
    0x08000216   0x08000216   0x00000000   Code   RO         5857    .ARM.Collect$$libshutdown$$0000000C  c_w.l(libshutdown2.o)
    0x08000216   0x08000216   0x00000000   Code   RO         5859    .ARM.Collect$$libshutdown$$0000000E  c_w.l(libshutdown2.o)
    0x08000216   0x08000216   0x00000000   Code   RO         5862    .ARM.Collect$$libshutdown$$00000011  c_w.l(libshutdown2.o)
    0x08000216   0x08000216   0x00000002   Code   RO         5863    .ARM.Collect$$libshutdown$$00000012  c_w.l(libshutdown2.o)
    0x08000218   0x08000218   0x00000000   Code   RO         5581    .ARM.Collect$$rtentry$$00000000  c_w.l(__rtentry.o)
    0x08000218   0x08000218   0x00000000   Code   RO         5611    .ARM.Collect$$rtentry$$00000002  c_w.l(__rtentry2.o)
    0x08000218   0x08000218   0x00000006   Code   RO         5623    .ARM.Collect$$rtentry$$00000004  c_w.l(__rtentry4.o)
    0x0800021e   0x0800021e   0x00000000   Code   RO         5613    .ARM.Collect$$rtentry$$00000009  c_w.l(__rtentry2.o)
    0x0800021e   0x0800021e   0x00000004   Code   RO         5614    .ARM.Collect$$rtentry$$0000000A  c_w.l(__rtentry2.o)
    0x08000222   0x08000222   0x00000000   Code   RO         5616    .ARM.Collect$$rtentry$$0000000C  c_w.l(__rtentry2.o)
    0x08000222   0x08000222   0x00000008   Code   RO         5617    .ARM.Collect$$rtentry$$0000000D  c_w.l(__rtentry2.o)
    0x0800022a   0x0800022a   0x00000002   Code   RO         5767    .ARM.Collect$$rtexit$$00000000  c_w.l(rtexit.o)
    0x0800022c   0x0800022c   0x00000000   Code   RO         5795    .ARM.Collect$$rtexit$$00000002  c_w.l(rtexit2.o)
    0x0800022c   0x0800022c   0x00000004   Code   RO         5796    .ARM.Collect$$rtexit$$00000003  c_w.l(rtexit2.o)
    0x08000230   0x08000230   0x00000006   Code   RO         5797    .ARM.Collect$$rtexit$$00000004  c_w.l(rtexit2.o)
    0x08000236   0x08000236   0x00000002   PAD
    0x08000238   0x08000238   0x00000040   Code   RO          134    .text               startup_gd32f10x_hd.o
    0x08000278   0x08000278   0x00000028   Code   RO         5468    .text               c_w.l(noretval__2sprintf.o)
    0x080002a0   0x080002a0   0x0000004e   Code   RO         5472    .text               c_w.l(_printf_pad.o)
    0x080002ee   0x080002ee   0x00000002   PAD
    0x080002f0   0x080002f0   0x00000078   Code   RO         5474    .text               c_w.l(_printf_dec.o)
    0x08000368   0x08000368   0x00000138   Code   RO         5488    .text               c_w.l(__printf_flags_wp.o)
    0x080004a0   0x080004a0   0x0000003c   Code   RO         5499    .text               c_w.l(__0sscanf.o)
    0x080004dc   0x080004dc   0x00000058   Code   RO         5503    .text               c_w.l(memcmp.o)
    0x08000534   0x08000534   0x0000003e   Code   RO         5505    .text               c_w.l(strlen.o)
    0x08000572   0x08000572   0x0000008a   Code   RO         5507    .text               c_w.l(rt_memcpy_v6.o)
    0x080005fc   0x080005fc   0x00000064   Code   RO         5509    .text               c_w.l(rt_memcpy_w.o)
    0x08000660   0x08000660   0x00000044   Code   RO         5511    .text               c_w.l(rt_memclr.o)
    0x080006a4   0x080006a4   0x0000004e   Code   RO         5513    .text               c_w.l(rt_memclr_w.o)
    0x080006f2   0x080006f2   0x00000006   Code   RO         5515    .text               c_w.l(heapauxi.o)
    0x080006f8   0x080006f8   0x000000b2   Code   RO         5582    .text               c_w.l(_printf_intcommon.o)
    0x080007aa   0x080007aa   0x0000041e   Code   RO         5584    .text               c_w.l(_printf_fp_dec.o)
    0x08000bc8   0x08000bc8   0x00000030   Code   RO         5586    .text               c_w.l(_printf_char_common.o)
    0x08000bf8   0x08000bf8   0x0000000a   Code   RO         5588    .text               c_w.l(_sputc.o)
    0x08000c02   0x08000c02   0x00000002   PAD
    0x08000c04   0x08000c04   0x000004f8   Code   RO         5591    .text               c_w.l(scanf_fp.o)
    0x080010fc   0x080010fc   0x0000002c   Code   RO         5593    .text               c_w.l(scanf_char.o)
    0x08001128   0x08001128   0x00000040   Code   RO         5595    .text               c_w.l(_sgetc.o)
    0x08001168   0x08001168   0x00000008   Code   RO         5628    .text               c_w.l(rt_locale_intlibspace.o)
    0x08001170   0x08001170   0x00000008   Code   RO         5633    .text               c_w.l(rt_errno_addr_intlibspace.o)
    0x08001178   0x08001178   0x0000008a   Code   RO         5635    .text               c_w.l(lludiv10.o)
    0x08001202   0x08001202   0x00000012   Code   RO         5637    .text               c_w.l(isspace.o)
    0x08001214   0x08001214   0x00000080   Code   RO         5639    .text               c_w.l(_printf_fp_infnan.o)
    0x08001294   0x08001294   0x00000374   Code   RO         5643    .text               c_w.l(_scanf.o)
    0x08001608   0x08001608   0x000000e4   Code   RO         5645    .text               c_w.l(bigflt0.o)
    0x080016ec   0x080016ec   0x00000008   Code   RO         5693    .text               c_w.l(libspace.o)
    0x080016f4   0x080016f4   0x0000004a   Code   RO         5696    .text               c_w.l(sys_stackheap_outer.o)
    0x0800173e   0x0800173e   0x00000002   PAD
    0x08001740   0x08001740   0x00000010   Code   RO         5698    .text               c_w.l(rt_ctype_table.o)
    0x08001750   0x08001750   0x00000016   Code   RO         5700    .text               c_w.l(_rserrno.o)
    0x08001766   0x08001766   0x00000002   PAD
    0x08001768   0x08001768   0x00000320   Code   RO         5702    .text               c_w.l(scanf_hexfp.o)
    0x08001a88   0x08001a88   0x00000134   Code   RO         5704    .text               c_w.l(scanf_infnan.o)
    0x08001bbc   0x08001bbc   0x00000012   Code   RO         5706    .text               c_w.l(exit.o)
    0x08001bce   0x08001bce   0x00000002   PAD
    0x08001bd0   0x08001bd0   0x00000080   Code   RO         5708    .text               c_w.l(strcmpv7m.o)
    0x08001c50   0x08001c50   0x00000026   Code   RO         5769    .text               c_w.l(llshl.o)
    0x08001c76   0x08001c76   0x0000001c   Code   RO         5771    .text               c_w.l(_chval.o)
    0x08001c92   0x08001c92   0x00000002   PAD
    0x08001c94   0x08001c94   0x0000000c   Code   RO         5824    .text               c_w.l(sys_exit.o)
    0x08001ca0   0x08001ca0   0x00000002   Code   RO         5837    .text               c_w.l(use_no_semi.o)
    0x08001ca2   0x08001ca2   0x00000000   Code   RO         5839    .text               c_w.l(indicate_semi.o)
    0x08001ca2   0x08001ca2   0x0000003e   Code   RO         5648    CL$$btod_d2e        c_w.l(btod.o)
    0x08001ce0   0x08001ce0   0x00000046   Code   RO         5650    CL$$btod_d2e_denorm_low  c_w.l(btod.o)
    0x08001d26   0x08001d26   0x00000060   Code   RO         5649    CL$$btod_d2e_norm_op1  c_w.l(btod.o)
    0x08001d86   0x08001d86   0x00000338   Code   RO         5658    CL$$btod_div_common  c_w.l(btod.o)
    0x080020be   0x080020be   0x00000002   PAD
    0x080020c0   0x080020c0   0x00000084   Code   RO         5656    CL$$btod_e2d        c_w.l(btod.o)
    0x08002144   0x08002144   0x000000dc   Code   RO         5655    CL$$btod_e2e        c_w.l(btod.o)
    0x08002220   0x08002220   0x0000002a   Code   RO         5652    CL$$btod_ediv       c_w.l(btod.o)
    0x0800224a   0x0800224a   0x0000002a   Code   RO         5654    CL$$btod_edivd      c_w.l(btod.o)
    0x08002274   0x08002274   0x0000002a   Code   RO         5651    CL$$btod_emul       c_w.l(btod.o)
    0x0800229e   0x0800229e   0x0000002a   Code   RO         5653    CL$$btod_emuld      c_w.l(btod.o)
    0x080022c8   0x080022c8   0x00000244   Code   RO         5657    CL$$btod_mult_common  c_w.l(btod.o)
    0x0800250c   0x0800250c   0x00000040   Code   RO         3978    i.ADC_GetVolPer     bsp_adc.o
    0x0800254c   0x0800254c   0x00000088   Code   RO         3979    i.Adc_Init          bsp_adc.o
    0x080025d4   0x080025d4   0x0000001c   Code   RO         3780    i.BEEP_SetState     bsp_gpio.o
    0x080025f0   0x080025f0   0x0000000c   Code   RO         3980    i.BSP_ADC_Init      bsp_adc.o
    0x080025fc   0x080025fc   0x00000024   Code   RO         3682    i.BSP_EEPROM_Init   bsp_eeprom.o
    0x08002620   0x08002620   0x00000108   Code   RO         3781    i.BSP_GPIO_Init     bsp_gpio.o
    0x08002728   0x08002728   0x0000002e   Code   RO         4388    i.BSP_Init          main.o
    0x08002756   0x08002756   0x00000002   PAD
    0x08002758   0x08002758   0x00000050   Code   RO         4158    i.BSP_Key_Init      bsp_key.o
    0x080027a8   0x080027a8   0x000000ac   Code   RO         4129    i.BSP_PWM_Init      bsp_pwm.o
    0x08002854   0x08002854   0x00000040   Code   RO         4035    i.BSP_RTC_Init      bsp_rtc.o
    0x08002894   0x08002894   0x00000010   Code   RO         3906    i.BSP_TIM_Init      bsp_timer.o
    0x080028a4   0x080028a4   0x00000170   Code   RO         3839    i.BSP_Uart_Init     bsp_uart.o
    0x08002a14   0x08002a14   0x000000c0   Code   RO         5026    i.BeepStateProcess  task_status.o
    0x08002ad4   0x08002ad4   0x00000040   Code   RO         4949    i.BubbleSort        task_dose.o
    0x08002b14   0x08002b14   0x00000004   Code   RO         4304    i.BusFault_Handler  gd32f10x_it.o
    0x08002b18   0x08002b18   0x00000014   Code   RO         4439    i.Byte_BCDToBin     sys.o
    0x08002b2c   0x08002b2c   0x0000001e   Code   RO         4440    i.Byte_BinToBCD     sys.o
    0x08002b4a   0x08002b4a   0x00000002   PAD
    0x08002b4c   0x08002b4c   0x00000070   Code   RO         3782    i.CHG_GetChgState   bsp_gpio.o
    0x08002bbc   0x08002bbc   0x0000001c   Code   RO         3783    i.CHG_SetChg        bsp_gpio.o
    0x08002bd8   0x08002bd8   0x00000010   Code   RO         3784    i.CHG_plugCheck     bsp_gpio.o
    0x08002be8   0x08002be8   0x00000040   Code   RO         5131    i.CalcDose          dose.o
    0x08002c28   0x08002c28   0x00000054   Code   RO         5027    i.ChgStateProcess   task_status.o
    0x08002c7c   0x08002c7c   0x00000020   Code   RO         4593    i.DebugDataParse    task_com.o
    0x08002c9c   0x08002c9c   0x00000002   Code   RO         4305    i.DebugMon_Handler  gd32f10x_it.o
    0x08002c9e   0x08002c9e   0x00000002   PAD
    0x08002ca0   0x08002ca0   0x000000d4   Code   RO         4595    i.DetectoCom        task_com.o
    0x08002d74   0x08002d74   0x00000044   Code   RO         5355    i.Display_CNT       display.o
    0x08002db8   0x08002db8   0x00000074   Code   RO         5357    i.Display_ProgressBar  display.o
    0x08002e2c   0x08002e2c   0x00000030   Code   RO         5358    i.Display_bat       display.o
    0x08002e5c   0x08002e5c   0x00000068   Code   RO         5359    i.Display_brightness  display.o
    0x08002ec4   0x08002ec4   0x00000104   Code   RO         5360    i.Display_dose      display.o
    0x08002fc8   0x08002fc8   0x0000018c   Code   RO         5361    i.Display_doseVal   display.o
    0x08003154   0x08003154   0x000000f2   Code   RO         5363    i.Display_setDeadtime  display.o
    0x08003246   0x08003246   0x000000a4   Code   RO         5364    i.Display_setDtFactor  display.o
    0x080032ea   0x080032ea   0x00000074   Code   RO         5365    i.Display_setFactor  display.o
    0x0800335e   0x0800335e   0x00000002   PAD
    0x08003360   0x08003360   0x00000150   Code   RO         5366    i.Display_setWarnVal  display.o
    0x080034b0   0x080034b0   0x00000054   Code   RO         5367    i.Display_statusBar  display.o
    0x08003504   0x08003504   0x0000006c   Code   RO         5368    i.Display_unitParam  display.o
    0x08003570   0x08003570   0x00000038   Code   RO         3683    i.EE_Ack            bsp_eeprom.o
    0x080035a8   0x080035a8   0x0000000a   Code   RO         3684    i.EE_Delay          bsp_eeprom.o
    0x080035b2   0x080035b2   0x00000002   PAD
    0x080035b4   0x080035b4   0x00000030   Code   RO         3685    i.EE_NAck           bsp_eeprom.o
    0x080035e4   0x080035e4   0x00000048   Code   RO         3686    i.EE_ReadByte       bsp_eeprom.o
    0x0800362c   0x0800362c   0x0000005c   Code   RO         3687    i.EE_SendByte       bsp_eeprom.o
    0x08003688   0x08003688   0x00000034   Code   RO         3688    i.EE_Start          bsp_eeprom.o
    0x080036bc   0x080036bc   0x00000028   Code   RO         3689    i.EE_Stop           bsp_eeprom.o
    0x080036e4   0x080036e4   0x00000044   Code   RO         3690    i.EE_WaitAck        bsp_eeprom.o
    0x08003728   0x08003728   0x0000016c   Code   RO         4950    i.ExtDoseCalc       task_dose.o
    0x08003894   0x08003894   0x00000018   Code   RO         5199    i.GUI_Refresh       gui.o
    0x080038ac   0x080038ac   0x0000010c   Code   RO         5200    i.GUI_SetBat        gui.o
    0x080039b8   0x080039b8   0x00000108   Code   RO         5201    i.GUI_SetChar1608   gui.o
    0x08003ac0   0x08003ac0   0x000000cc   Code   RO         5202    i.GUI_SetChar1616   gui.o
    0x08003b8c   0x08003b8c   0x00000108   Code   RO         5203    i.GUI_SetChar2412   gui.o
    0x08003c94   0x08003c94   0x000000cc   Code   RO         5204    i.GUI_SetChar2424   gui.o
    0x08003d60   0x08003d60   0x00000108   Code   RO         5205    i.GUI_SetChar3216   gui.o
    0x08003e68   0x08003e68   0x00000104   Code   RO         5206    i.GUI_SetChar4824   gui.o
    0x08003f6c   0x08003f6c   0x0000002a   Code   RO         5209    i.GUI_SetFillRect   gui.o
    0x08003f96   0x08003f96   0x00000002   PAD
    0x08003f98   0x08003f98   0x0000016c   Code   RO         5210    i.GUI_SetLine       gui.o
    0x08004104   0x08004104   0x00000042   Code   RO         5212    i.GUI_SetRect       gui.o
    0x08004146   0x08004146   0x00000034   Code   RO         5213    i.GUI_SetString1608  gui.o
    0x0800417a   0x0800417a   0x00000052   Code   RO         5214    i.GUI_SetString1616  gui.o
    0x080041cc   0x080041cc   0x00000034   Code   RO         5215    i.GUI_SetString2412  gui.o
    0x08004200   0x08004200   0x00000052   Code   RO         5216    i.GUI_SetString2424  gui.o
    0x08004252   0x08004252   0x00000034   Code   RO         5217    i.GUI_SetString3216  gui.o
    0x08004286   0x08004286   0x00000034   Code   RO         5218    i.GUI_SetString4824  gui.o
    0x080042ba   0x080042ba   0x00000002   PAD
    0x080042bc   0x080042bc   0x00000024   Code   RO         3981    i.GetAdcVal         bsp_adc.o
    0x080042e0   0x080042e0   0x0000000c   Code   RO         5028    i.GetChgState       task_status.o
    0x080042ec   0x080042ec   0x0000001c   Code   RO         5369    i.GetDoseUnit       display.o
    0x08004308   0x08004308   0x00000134   Code   RO         3982    i.Get_BatValueSOC   bsp_adc.o
    0x0800443c   0x0800443c   0x00000058   Code   RO         4036    i.Get_RTC_Time      bsp_rtc.o
    0x08004494   0x08004494   0x0000001c   Code   RO         3984    i.Gpio_Init         bsp_adc.o
    0x080044b0   0x080044b0   0x00000034   Code   RO         4637    i.HMI_start         task_gui.o
    0x080044e4   0x080044e4   0x00000368   Code   RO         5220    i.HZ16_to_index     gui.o
    0x0800484c   0x0800484c   0x0000029a   Code   RO         5221    i.HZ24_to_index     gui.o
    0x08004ae6   0x08004ae6   0x00000004   Code   RO         4306    i.HardFault_Handler  gd32f10x_it.o
    0x08004aea   0x08004aea   0x00000002   PAD
    0x08004aec   0x08004aec   0x000000ec   Code   RO         4951    i.IntDoseCalc       task_dose.o
    0x08004bd8   0x08004bd8   0x0000000c   Code   RO         4159    i.KeyGetState       bsp_key.o
    0x08004be4   0x08004be4   0x00000030   Code   RO         4216    i.LCD_FillData      bsp_lcd.o
    0x08004c14   0x08004c14   0x000001b6   Code   RO         4217    i.LCD_Init          bsp_lcd.o
    0x08004dca   0x08004dca   0x0000003a   Code   RO         4218    i.LCD_clear         bsp_lcd.o
    0x08004e04   0x08004e04   0x00000016   Code   RO         4219    i.LCD_delay         bsp_lcd.o
    0x08004e1a   0x08004e1a   0x00000002   PAD
    0x08004e1c   0x08004e1c   0x00000030   Code   RO         4220    i.LCD_reset         bsp_lcd.o
    0x08004e4c   0x08004e4c   0x00000048   Code   RO         4221    i.LCD_set_window    bsp_lcd.o
    0x08004e94   0x08004e94   0x00000034   Code   RO         4222    i.LCD_write         bsp_lcd.o
    0x08004ec8   0x08004ec8   0x00000048   Code   RO         3785    i.LED_SetState      bsp_gpio.o
    0x08004f10   0x08004f10   0x00000064   Code   RO         5029    i.LedStateProcess   task_status.o
    0x08004f74   0x08004f74   0x00000004   Code   RO         4307    i.MemManage_Handler  gd32f10x_it.o
    0x08004f78   0x08004f78   0x00000002   Code   RO         4308    i.NMI_Handler       gd32f10x_it.o
    0x08004f7a   0x08004f7a   0x00000002   PAD
    0x08004f7c   0x08004f7c   0x00000028   Code   RO         4543    i.NVIC_SetPriority  sys_config.o
    0x08004fa4   0x08004fa4   0x00000010   Code   RO         3786    i.PWR_shutdown      bsp_gpio.o
    0x08004fb4   0x08004fb4   0x00000058   Code   RO         3907    i.PulseCntGet       bsp_timer.o
    0x0800500c   0x0800500c   0x00000030   Code   RO         4037    i.RTC_Ack           bsp_rtc.o
    0x0800503c   0x0800503c   0x0000000a   Code   RO         4038    i.RTC_Delay         bsp_rtc.o
    0x08005046   0x08005046   0x00000002   PAD
    0x08005048   0x08005048   0x00000028   Code   RO         4039    i.RTC_NAck          bsp_rtc.o
    0x08005070   0x08005070   0x00000064   Code   RO         4040    i.RTC_Read          bsp_rtc.o
    0x080050d4   0x080050d4   0x00000044   Code   RO         4041    i.RTC_ReadByte      bsp_rtc.o
    0x08005118   0x08005118   0x00000054   Code   RO         4042    i.RTC_SendByte      bsp_rtc.o
    0x0800516c   0x0800516c   0x00000030   Code   RO         4043    i.RTC_Start         bsp_rtc.o
    0x0800519c   0x0800519c   0x00000024   Code   RO         4044    i.RTC_Stop          bsp_rtc.o
    0x080051c0   0x080051c0   0x0000003c   Code   RO         4045    i.RTC_WaitAck       bsp_rtc.o
    0x080051fc   0x080051fc   0x0000004e   Code   RO         4046    i.RTC_Write         bsp_rtc.o
    0x0800524a   0x0800524a   0x00000002   PAD
    0x0800524c   0x0800524c   0x000001b8   Code   RO         5081    i.SYS_Param_Init    task_manage.o
    0x08005404   0x08005404   0x00000010   Code   RO         4130    i.SetLcdBacklight   bsp_pwm.o
    0x08005414   0x08005414   0x0000005e   Code   RO         4047    i.Set_RTC_Time      bsp_rtc.o
    0x08005472   0x08005472   0x00000008   Code   RO         4309    i.SysTick_Handler   gd32f10x_it.o
    0x0800547a   0x0800547a   0x00000002   PAD
    0x0800547c   0x0800547c   0x000000d4   Code   RO            3    i.SystemInit        system_gd32f10x.o
    0x08005550   0x08005550   0x000000a4   Code   RO         3908    i.TIM0_Init         bsp_timer.o
    0x080055f4   0x080055f4   0x000000c0   Code   RO         3909    i.TIM1_Init         bsp_timer.o
    0x080056b4   0x080056b4   0x00000064   Code   RO         3910    i.TIM5_Init         bsp_timer.o
    0x08005718   0x08005718   0x00000028   Code   RO         3911    i.TIMER0_UP_IRQHandler  bsp_timer.o
    0x08005740   0x08005740   0x00000024   Code   RO         3912    i.TIMER1_IRQHandler  bsp_timer.o
    0x08005764   0x08005764   0x00000028   Code   RO         3913    i.TIMER5_IRQHandler  bsp_timer.o
    0x0800578c   0x0800578c   0x00000114   Code   RO         4638    i.Task_HMI          task_gui.o
    0x080058a0   0x080058a0   0x00000090   Code   RO         5030    i.Task_bat          task_status.o
    0x08005930   0x08005930   0x00000028   Code   RO         4596    i.Task_com          task_com.o
    0x08005958   0x08005958   0x00000010   Code   RO         4952    i.Task_dose         task_dose.o
    0x08005968   0x08005968   0x00000014   Code   RO         5082    i.Task_manage       task_manage.o
    0x0800597c   0x0800597c   0x0000007c   Code   RO         5031    i.Task_status       task_status.o
    0x080059f8   0x080059f8   0x0000000c   Code   RO         3914    i.TimerGetCnt       bsp_timer.o
    0x08005a04   0x08005a04   0x00000010   Code   RO         4310    i.UART3_IRQHandler  gd32f10x_it.o
    0x08005a14   0x08005a14   0x000000dc   Code   RO         3840    i.UART_IRQn         bsp_uart.o
    0x08005af0   0x08005af0   0x00000010   Code   RO         4311    i.USART0_IRQHandler  gd32f10x_it.o
    0x08005b00   0x08005b00   0x00000002   Code   RO         4312    i.USART1_IRQHandler  gd32f10x_it.o
    0x08005b02   0x08005b02   0x00000002   PAD
    0x08005b04   0x08005b04   0x00000010   Code   RO         4313    i.USART2_IRQHandler  gd32f10x_it.o
    0x08005b14   0x08005b14   0x0000005c   Code   RO         3841    i.Uart3SetBaud      bsp_uart.o
    0x08005b70   0x08005b70   0x00000004   Code   RO         4314    i.UsageFault_Handler  gd32f10x_it.o
    0x08005b74   0x08005b74   0x00000028   Code   RO         5685    i.__ARM_fpclassify  m_ws.l(fpclassify.o)
    0x08005b9c   0x08005b9c   0x0000000e   Code   RO         5811    i.__mathlib_dbl_overflow  m_ws.l(dunder.o)
    0x08005baa   0x08005baa   0x00000002   PAD
    0x08005bac   0x08005bac   0x00000010   Code   RO         5813    i.__mathlib_dbl_underflow  m_ws.l(dunder.o)
    0x08005bbc   0x08005bbc   0x00000010   Code   RO         5687    i.__mathlib_narrow  m_ws.l(narrow.o)
    0x08005bcc   0x08005bcc   0x000000bc   Code   RO         5688    i.__mathlib_tofloat  m_ws.l(narrow.o)
    0x08005c88   0x08005c88   0x00000016   Code   RO         5783    i.__support_ldexp   m_ws.l(ldexp.o)
    0x08005c9e   0x08005c9e   0x0000000e   Code   RO         5486    i._is_digit         c_w.l(__printf_wp.o)
    0x08005cac   0x08005cac   0x0000002a   Code   RO          140    i.adc_calibration_enable  gd32f10x_adc.o
    0x08005cd6   0x08005cd6   0x00000046   Code   RO          141    i.adc_channel_length_config  gd32f10x_adc.o
    0x08005d1c   0x08005d1c   0x00000016   Code   RO          142    i.adc_data_alignment_config  gd32f10x_adc.o
    0x08005d32   0x08005d32   0x00000002   PAD
    0x08005d34   0x08005d34   0x00000058   Code   RO          143    i.adc_deinit        gd32f10x_adc.o
    0x08005d8c   0x08005d8c   0x00000012   Code   RO          148    i.adc_enable        gd32f10x_adc.o
    0x08005d9e   0x08005d9e   0x0000003e   Code   RO          149    i.adc_external_trigger_config  gd32f10x_adc.o
    0x08005ddc   0x08005ddc   0x00000030   Code   RO          150    i.adc_external_trigger_source_config  gd32f10x_adc.o
    0x08005e0c   0x08005e0c   0x0000000e   Code   RO          152    i.adc_flag_get      gd32f10x_adc.o
    0x08005e1a   0x08005e1a   0x00000002   PAD
    0x08005e1c   0x08005e1c   0x0000001c   Code   RO          161    i.adc_mode_config   gd32f10x_adc.o
    0x08005e38   0x08005e38   0x000000ac   Code   RO          162    i.adc_regular_channel_config  gd32f10x_adc.o
    0x08005ee4   0x08005ee4   0x00000008   Code   RO          163    i.adc_regular_data_read  gd32f10x_adc.o
    0x08005eec   0x08005eec   0x0000001e   Code   RO          165    i.adc_software_trigger_enable  gd32f10x_adc.o
    0x08005f0a   0x08005f0a   0x0000005a   Code   RO          166    i.adc_special_function_config  gd32f10x_adc.o
    0x08005f64   0x08005f64   0x0000002c   Code   RO         5134    i.add_buff_count    dose.o
    0x08005f90   0x08005f90   0x0000002c   Code   RO         5135    i.add_fast_buff_count  dose.o
    0x08005fbc   0x08005fbc   0x00000052   Code   RO         3843    i.add_parity_bit    bsp_uart.o
    0x0800600e   0x0800600e   0x00000002   PAD
    0x08006010   0x08006010   0x00000034   Code   RO         4161    i.bsp_GetKey        bsp_key.o
    0x08006044   0x08006044   0x000000a8   Code   RO         4162    i.bsp_KeyScan       bsp_key.o
    0x080060ec   0x080060ec   0x00000020   Code   RO         4163    i.bsp_PutKey        bsp_key.o
    0x0800610c   0x0800610c   0x0000003c   Code   RO         5083    i.comUartSetup      task_manage.o
    0x08006148   0x08006148   0x000001d4   Code   RO         5136    i.count_data_check  dose.o
    0x0800631c   0x0800631c   0x0000004c   Code   RO         5137    i.count_to_rate     dose.o
    0x08006368   0x08006368   0x00000018   Code   RO         4451    i.delay_ms          sys.o
    0x08006380   0x08006380   0x00000018   Code   RO         4452    i.delay_us          sys.o
    0x08006398   0x08006398   0x00000088   Code   RO         5370    i.display_time      display.o
    0x08006420   0x08006420   0x000000b8   Code   RO         5084    i.eepromDataRefresh  task_manage.o
    0x080064d8   0x080064d8   0x00000010   Code   RO         5085    i.eepromSetStatus   task_manage.o
    0x080064e8   0x080064e8   0x00000058   Code   RO         5764    i.frexp             m_ws.l(frexp.o)
    0x08006540   0x08006540   0x0000004c   Code   RO         5138    i.get_avage_count   dose.o
    0x0800658c   0x0800658c   0x00000044   Code   RO         4954    i.get_list_avage    task_dose.o
    0x080065d0   0x080065d0   0x000000ac   Code   RO         1658    i.gpio_init         gd32f10x_gpio.o
    0x0800667c   0x0800667c   0x00000010   Code   RO         1659    i.gpio_input_bit_get  gd32f10x_gpio.o
    0x0800668c   0x0800668c   0x00000090   Code   RO         1664    i.gpio_pin_remap_config  gd32f10x_gpio.o
    0x0800671c   0x0800671c   0x00000060   Code   RO         4224    i.lcd_gpio_init     bsp_lcd.o
    0x0800677c   0x0800677c   0x00000040   Code   RO         4225    i.lcd_spi_init      bsp_lcd.o
    0x080067bc   0x080067bc   0x00000074   Code   RO         5784    i.ldexp             m_ws.l(ldexp.o)
    0x08006830   0x08006830   0x0000001a   Code   RO         4955    i.list_add          task_dose.o
    0x0800684a   0x0800684a   0x00000016   Code   RO         4957    i.list_refresh      task_dose.o
    0x08006860   0x08006860   0x000000d8   Code   RO         4389    i.main              main.o
    0x08006938   0x08006938   0x0000008c   Code   RO         4639    i.menu01            task_gui.o
    0x080069c4   0x080069c4   0x00000118   Code   RO         4640    i.menu011           task_gui.o
    0x08006adc   0x08006adc   0x00000198   Code   RO         4641    i.menu0111          task_gui.o
    0x08006c74   0x08006c74   0x00000154   Code   RO         4642    i.menu012           task_gui.o
    0x08006dc8   0x08006dc8   0x000003dc   Code   RO         4643    i.menu0121          task_gui.o
    0x080071a4   0x080071a4   0x00000138   Code   RO         4644    i.menu013           task_gui.o
    0x080072dc   0x080072dc   0x000003e8   Code   RO         4645    i.menu0131          task_gui.o
    0x080076c4   0x080076c4   0x00000100   Code   RO         4646    i.menu014           task_gui.o
    0x080077c4   0x080077c4   0x000001d0   Code   RO         4647    i.menu0141          task_gui.o
    0x08007994   0x08007994   0x00000118   Code   RO         4648    i.menu015           task_gui.o
    0x08007aac   0x08007aac   0x000001ec   Code   RO         4649    i.menu0151          task_gui.o
    0x08007c98   0x08007c98   0x0000008c   Code   RO         4650    i.menu02            task_gui.o
    0x08007d24   0x08007d24   0x00000218   Code   RO         4651    i.menu03            task_gui.o
    0x08007f3c   0x08007f3c   0x00000114   Code   RO         4652    i.menu1             task_gui.o
    0x08008050   0x08008050   0x00000114   Code   RO         4653    i.menu11            task_gui.o
    0x08008164   0x08008164   0x0000028c   Code   RO         4654    i.menu111           task_gui.o
    0x080083f0   0x080083f0   0x00000114   Code   RO         4655    i.menu12            task_gui.o
    0x08008504   0x08008504   0x000002a0   Code   RO         4656    i.menu121           task_gui.o
    0x080087a4   0x080087a4   0x00000140   Code   RO         4657    i.menu2             task_gui.o
    0x080088e4   0x080088e4   0x00000140   Code   RO         4658    i.menu21            task_gui.o
    0x08008a24   0x08008a24   0x00000104   Code   RO         4659    i.menu211           task_gui.o
    0x08008b28   0x08008b28   0x00000140   Code   RO         4660    i.menu22            task_gui.o
    0x08008c68   0x08008c68   0x00000180   Code   RO         4661    i.menu221           task_gui.o
    0x08008de8   0x08008de8   0x00000140   Code   RO         4662    i.menu23            task_gui.o
    0x08008f28   0x08008f28   0x00000208   Code   RO         4663    i.menu231           task_gui.o
    0x08009130   0x08009130   0x0000010c   Code   RO         4664    i.menu3             task_gui.o
    0x0800923c   0x0800923c   0x000000fc   Code   RO         4665    i.menu31            task_gui.o
    0x08009338   0x08009338   0x00000104   Code   RO         4666    i.menu311           task_gui.o
    0x0800943c   0x0800943c   0x0000015c   Code   RO         4667    i.menu4             task_gui.o
    0x08009598   0x08009598   0x0000015c   Code   RO         4668    i.menu41            task_gui.o
    0x080096f4   0x080096f4   0x0000015c   Code   RO         4669    i.menu42            task_gui.o
    0x08009850   0x08009850   0x0000015c   Code   RO         4670    i.menu43            task_gui.o
    0x080099ac   0x080099ac   0x0000015c   Code   RO         4671    i.menu44            task_gui.o
    0x08009b08   0x08009b08   0x00000108   Code   RO         4672    i.menu5             task_gui.o
    0x08009c10   0x08009c10   0x00000108   Code   RO         4673    i.menu51            task_gui.o
    0x08009d18   0x08009d18   0x000001c8   Code   RO         4674    i.menu511           task_gui.o
    0x08009ee0   0x08009ee0   0x000000bc   Code   RO         4675    i.menu61            task_gui.o
    0x08009f9c   0x08009f9c   0x00000070   Code   RO         4676    i.menu611           task_gui.o
    0x0800a00c   0x0800a00c   0x000000bc   Code   RO         4677    i.menu62            task_gui.o
    0x0800a0c8   0x0800a0c8   0x000001c0   Code   RO         4678    i.menu621           task_gui.o
    0x0800a288   0x0800a288   0x000000bc   Code   RO         4679    i.menu63            task_gui.o
    0x0800a344   0x0800a344   0x00000260   Code   RO         4680    i.menu631           task_gui.o
    0x0800a5a4   0x0800a5a4   0x000000f8   Code   RO         4681    i.menu_main1        task_gui.o
    0x0800a69c   0x0800a69c   0x00000110   Code   RO         4682    i.menu_main2        task_gui.o
    0x0800a7ac   0x0800a7ac   0x00000002   Code   RO         4683    i.menu_main3        task_gui.o
    0x0800a7ae   0x0800a7ae   0x00000050   Code   RO         4684    i.menu_shutdown     task_gui.o
    0x0800a7fe   0x0800a7fe   0x00000002   PAD
    0x0800a800   0x0800a800   0x000000ac   Code   RO         1966    i.nvic_irq_enable   gd32f10x_misc.o
    0x0800a8ac   0x0800a8ac   0x00000014   Code   RO         1967    i.nvic_priority_group_set  gd32f10x_misc.o
    0x0800a8c0   0x0800a8c0   0x00000018   Code   RO         1968    i.nvic_vector_table_set  gd32f10x_misc.o
    0x0800a8d8   0x0800a8d8   0x00000048   Code   RO         2108    i.rcu_adc_clock_config  gd32f10x_rcu.o
    0x0800a920   0x0800a920   0x00000124   Code   RO         2116    i.rcu_clock_freq_get  gd32f10x_rcu.o
    0x0800aa44   0x0800aa44   0x00000020   Code   RO         2133    i.rcu_periph_clock_enable  gd32f10x_rcu.o
    0x0800aa64   0x0800aa64   0x00000020   Code   RO         2136    i.rcu_periph_reset_disable  gd32f10x_rcu.o
    0x0800aa84   0x0800aa84   0x00000020   Code   RO         2137    i.rcu_periph_reset_enable  gd32f10x_rcu.o
    0x0800aaa4   0x0800aaa4   0x00000078   Code   RO         3691    i.read_eeprom       bsp_eeprom.o
    0x0800ab1c   0x0800ab1c   0x00000054   Code   RO         4545    i.setSystemTick     sys_config.o
    0x0800ab70   0x0800ab70   0x0000000a   Code   RO         2747    i.spi_enable        gd32f10x_spi.o
    0x0800ab7a   0x0800ab7a   0x00000008   Code   RO         2749    i.spi_i2s_data_receive  gd32f10x_spi.o
    0x0800ab82   0x0800ab82   0x00000004   Code   RO         2750    i.spi_i2s_data_transmit  gd32f10x_spi.o
    0x0800ab86   0x0800ab86   0x00000010   Code   RO         2752    i.spi_i2s_flag_get  gd32f10x_spi.o
    0x0800ab96   0x0800ab96   0x00000032   Code   RO         2756    i.spi_init          gd32f10x_spi.o
    0x0800abc8   0x0800abc8   0x00000038   Code   RO         4226    i.spi_send_byte     bsp_lcd.o
    0x0800ac00   0x0800ac00   0x000000c4   Code   RO            4    i.system_clock_108m_hxtal  system_gd32f10x.o
    0x0800acc4   0x0800acc4   0x00000008   Code   RO            5    i.system_clock_config  system_gd32f10x.o
    0x0800accc   0x0800accc   0x00000010   Code   RO         4547    i.taskTicksInc      sys_config.o
    0x0800acdc   0x0800acdc   0x0000000a   Code   RO         2927    i.timer_auto_reload_shadow_enable  gd32f10x_timer.o
    0x0800ace6   0x0800ace6   0x00000002   PAD
    0x0800ace8   0x0800ace8   0x000001ec   Code   RO         2944    i.timer_channel_output_config  gd32f10x_timer.o
    0x0800aed4   0x0800aed4   0x0000005a   Code   RO         2946    i.timer_channel_output_mode_config  gd32f10x_timer.o
    0x0800af2e   0x0800af2e   0x00000026   Code   RO         2948    i.timer_channel_output_pulse_value_config  gd32f10x_timer.o
    0x0800af54   0x0800af54   0x0000005a   Code   RO         2949    i.timer_channel_output_shadow_config  gd32f10x_timer.o
    0x0800afae   0x0800afae   0x00000004   Code   RO         2956    i.timer_counter_value_config  gd32f10x_timer.o
    0x0800afb2   0x0800afb2   0x00000002   PAD
    0x0800afb4   0x0800afb4   0x000000dc   Code   RO         2957    i.timer_deinit      gd32f10x_timer.o
    0x0800b090   0x0800b090   0x0000000a   Code   RO         2962    i.timer_enable      gd32f10x_timer.o
    0x0800b09a   0x0800b09a   0x00000020   Code   RO         2965    i.timer_external_clock_mode1_config  gd32f10x_timer.o
    0x0800b0ba   0x0800b0ba   0x0000001e   Code   RO         2968    i.timer_external_trigger_config  gd32f10x_timer.o
    0x0800b0d8   0x0800b0d8   0x00000006   Code   RO         2969    i.timer_flag_clear  gd32f10x_timer.o
    0x0800b0de   0x0800b0de   0x00000002   PAD
    0x0800b0e0   0x0800b0e0   0x000000e0   Code   RO         2972    i.timer_init        gd32f10x_timer.o
    0x0800b1c0   0x0800b1c0   0x00000010   Code   RO         2975    i.timer_input_trigger_source_select  gd32f10x_timer.o
    0x0800b1d0   0x0800b1d0   0x00000008   Code   RO         2979    i.timer_interrupt_enable  gd32f10x_timer.o
    0x0800b1d8   0x0800b1d8   0x00000006   Code   RO         2980    i.timer_interrupt_flag_clear  gd32f10x_timer.o
    0x0800b1de   0x0800b1de   0x00000018   Code   RO         2981    i.timer_interrupt_flag_get  gd32f10x_timer.o
    0x0800b1f6   0x0800b1f6   0x0000001a   Code   RO         2983    i.timer_master_slave_mode_config  gd32f10x_timer.o
    0x0800b210   0x0800b210   0x00000010   Code   RO         2990    i.timer_slave_mode_select  gd32f10x_timer.o
    0x0800b220   0x0800b220   0x00000016   Code   RO         2991    i.timer_struct_para_init  gd32f10x_timer.o
    0x0800b236   0x0800b236   0x00000002   PAD
    0x0800b238   0x0800b238   0x0000007c   Code   RO         3844    i.uart_send_buf     bsp_uart.o
    0x0800b2b4   0x0800b2b4   0x00000064   Code   RO         3845    i.uart_var_init     bsp_uart.o
    0x0800b318   0x0800b318   0x00000090   Code   RO         3355    i.usart_baudrate_set  gd32f10x_usart.o
    0x0800b3a8   0x0800b3a8   0x0000000a   Code   RO         3356    i.usart_data_receive  gd32f10x_usart.o
    0x0800b3b2   0x0800b3b2   0x00000008   Code   RO         3357    i.usart_data_transmit  gd32f10x_usart.o
    0x0800b3ba   0x0800b3ba   0x00000002   PAD
    0x0800b3bc   0x0800b3bc   0x00000090   Code   RO         3358    i.usart_deinit      gd32f10x_usart.o
    0x0800b44c   0x0800b44c   0x0000000a   Code   RO         3362    i.usart_enable      gd32f10x_usart.o
    0x0800b456   0x0800b456   0x0000001e   Code   RO         3364    i.usart_flag_get    gd32f10x_usart.o
    0x0800b474   0x0800b474   0x00000014   Code   RO         3368    i.usart_hardware_flow_cts_config  gd32f10x_usart.o
    0x0800b488   0x0800b488   0x00000014   Code   RO         3369    i.usart_hardware_flow_rts_config  gd32f10x_usart.o
    0x0800b49c   0x0800b49c   0x0000001a   Code   RO         3370    i.usart_interrupt_disable  gd32f10x_usart.o
    0x0800b4b6   0x0800b4b6   0x0000001a   Code   RO         3371    i.usart_interrupt_enable  gd32f10x_usart.o
    0x0800b4d0   0x0800b4d0   0x00000012   Code   RO         3372    i.usart_interrupt_flag_clear  gd32f10x_usart.o
    0x0800b4e2   0x0800b4e2   0x00000038   Code   RO         3373    i.usart_interrupt_flag_get  gd32f10x_usart.o
    0x0800b51a   0x0800b51a   0x00000010   Code   RO         3383    i.usart_parity_config  gd32f10x_usart.o
    0x0800b52a   0x0800b52a   0x00000010   Code   RO         3385    i.usart_receive_config  gd32f10x_usart.o
    0x0800b53a   0x0800b53a   0x00000010   Code   RO         3391    i.usart_stop_bit_set  gd32f10x_usart.o
    0x0800b54a   0x0800b54a   0x00000010   Code   RO         3395    i.usart_transmit_config  gd32f10x_usart.o
    0x0800b55a   0x0800b55a   0x00000010   Code   RO         3396    i.usart_word_length_set  gd32f10x_usart.o
    0x0800b56a   0x0800b56a   0x00000088   Code   RO         3693    i.write_eeprom      bsp_eeprom.o
    0x0800b5f2   0x0800b5f2   0x00000002   PAD
    0x0800b5f4   0x0800b5f4   0x0000002c   Code   RO         5671    locale$$code        c_w.l(lc_numeric_c.o)
    0x0800b620   0x0800b620   0x0000002c   Code   RO         5774    locale$$code        c_w.l(lc_ctype_c.o)
    0x0800b64c   0x0800b64c   0x00000062   Code   RO         5519    x$fpl$d2f           fz_ws.l(d2f.o)
    0x0800b6ae   0x0800b6ae   0x00000002   PAD
    0x0800b6b0   0x0800b6b0   0x00000010   Code   RO         5805    x$fpl$dcheck1       fz_ws.l(dcheck1.o)
    0x0800b6c0   0x0800b6c0   0x00000018   Code   RO         5597    x$fpl$dcmpinf       fz_ws.l(dcmpi.o)
    0x0800b6d8   0x0800b6d8   0x00000078   Code   RO         5761    x$fpl$deqf          fz_ws.l(deqf.o)
    0x0800b750   0x0800b750   0x00000078   Code   RO         5541    x$fpl$dleqf         fz_ws.l(dleqf.o)
    0x0800b7c8   0x0800b7c8   0x00000154   Code   RO         5543    x$fpl$dmul          fz_ws.l(dmul.o)
    0x0800b91c   0x0800b91c   0x0000009c   Code   RO         5599    x$fpl$dnaninf       fz_ws.l(dnaninf.o)
    0x0800b9b8   0x0800b9b8   0x0000000c   Code   RO         5601    x$fpl$dretinf       fz_ws.l(dretinf.o)
    0x0800b9c4   0x0800b9c4   0x0000006c   Code   RO         5545    x$fpl$drleqf        fz_ws.l(drleqf.o)
    0x0800ba30   0x0800ba30   0x00000056   Code   RO         5547    x$fpl$f2d           fz_ws.l(f2d.o)
    0x0800ba86   0x0800ba86   0x00000002   PAD
    0x0800ba88   0x0800ba88   0x000000c4   Code   RO         5549    x$fpl$fadd          fz_ws.l(faddsub_clz.o)
    0x0800bb4c   0x0800bb4c   0x00000018   Code   RO         5603    x$fpl$fcmpinf       fz_ws.l(fcmpi.o)
    0x0800bb64   0x0800bb64   0x00000184   Code   RO         5556    x$fpl$fdiv          fz_ws.l(fdiv.o)
    0x0800bce8   0x0800bce8   0x00000068   Code   RO         5559    x$fpl$feqf          fz_ws.l(feqf.o)
    0x0800bd50   0x0800bd50   0x0000003e   Code   RO         5561    x$fpl$ffixu         fz_ws.l(ffixu.o)
    0x0800bd8e   0x0800bd8e   0x00000002   PAD
    0x0800bd90   0x0800bd90   0x00000026   Code   RO         5565    x$fpl$ffltu         fz_ws.l(fflt_clz.o)
    0x0800bdb6   0x0800bdb6   0x00000002   PAD
    0x0800bdb8   0x0800bdb8   0x00000068   Code   RO         5571    x$fpl$fleqf         fz_ws.l(fleqf.o)
    0x0800be20   0x0800be20   0x00000102   Code   RO         5573    x$fpl$fmul          fz_ws.l(fmul.o)
    0x0800bf22   0x0800bf22   0x0000008c   Code   RO         5605    x$fpl$fnaninf       fz_ws.l(fnaninf.o)
    0x0800bfae   0x0800bfae   0x0000000a   Code   RO         5607    x$fpl$fretinf       fz_ws.l(fretinf.o)
    0x0800bfb8   0x0800bfb8   0x00000062   Code   RO         5575    x$fpl$frleqf        fz_ws.l(frleqf.o)
    0x0800c01a   0x0800c01a   0x00000002   PAD
    0x0800c01c   0x0800c01c   0x000000ea   Code   RO         5551    x$fpl$fsub          fz_ws.l(faddsub_clz.o)
    0x0800c106   0x0800c106   0x00000006   Code   RO         5677    x$fpl$ieeestatus    fz_ws.l(istatus.o)
    0x0800c10c   0x0800c10c   0x00000004   Code   RO         5577    x$fpl$printf1       fz_ws.l(printf1.o)
    0x0800c110   0x0800c110   0x00000064   Code   RO         5835    x$fpl$retnan        fz_ws.l(retnan.o)
    0x0800c174   0x0800c174   0x0000005c   Code   RO         5780    x$fpl$scalbn        fz_ws.l(scalbn.o)
    0x0800c1d0   0x0800c1d0   0x00000004   Code   RO         5579    x$fpl$scanf1        fz_ws.l(scanf1.o)
    0x0800c1d4   0x0800c1d4   0x00000008   Code   RO         5679    x$fpl$scanf2        fz_ws.l(scanf2.o)
    0x0800c1dc   0x0800c1dc   0x00000030   Code   RO         5864    x$fpl$trapveneer    fz_ws.l(trapv.o)
    0x0800c20c   0x0800c20c   0x00000000   Code   RO         5609    x$fpl$usenofp       fz_ws.l(usenofp.o)
    0x0800c20c   0x0800c20c   0x00000016   Data   RO         3986    .constdata          bsp_adc.o
    0x0800c222   0x0800c222   0x00000014   Data   RO         5032    .constdata          task_status.o
    0x0800c236   0x0800c236   0x00000002   PAD
    0x0800c238   0x0800c238   0x00000024   Data   RO         5086    .constdata          task_manage.o
    0x0800c25c   0x0800c25c   0x000052fc   Data   RO         5223    .constdata          gui.o
    0x08011558   0x08011558   0x00000011   Data   RO         5489    .constdata          c_w.l(__printf_flags_wp.o)
    0x08011569   0x08011569   0x00000003   PAD
    0x0801156c   0x0801156c   0x00000094   Data   RO         5646    .constdata          c_w.l(bigflt0.o)
    0x08011600   0x08011600   0x00000020   Data   RO         5890    Region$$Table       anon$$obj.o
    0x08011620   0x08011620   0x00000008   Data   RO         5673    c$$dinf             fz_ws.l(fpconst.o)
    0x08011628   0x08011628   0x00000008   Data   RO         5676    c$$dmax             fz_ws.l(fpconst.o)
    0x08011630   0x08011630   0x0000001c   Data   RO         5670    locale$$data        c_w.l(lc_numeric_c.o)
    0x0801164c   0x0801164c   0x00000110   Data   RO         5773    locale$$data        c_w.l(lc_ctype_c.o)


    Execution Region RW_IRAM1 (Exec base: 0x20000000, Load base: 0x0801175c, Size: 0x00002e18, Max: 0x0000c000, ABSOLUTE, COMPRESSED[0x000002c4])

    Exec Addr    Load Addr    Size         Type   Attr      Idx    E Section Name        Object

    0x20000000   COMPRESSED   0x00000004   Data   RW            6    .data               system_gd32f10x.o
    0x20000004   COMPRESSED   0x0000000c   Data   RW         3915    .data               bsp_timer.o
    0x20000010   COMPRESSED   0x0000002c   Data   RW         4165    .data               bsp_key.o
    0x2000003c   COMPRESSED   0x0000004c   Data   RW         4391    .data               main.o
    0x20000088   COMPRESSED   0x00000004   Data   RW         4548    .data               sys_config.o
    0x2000008c   COMPRESSED   0x00000054   Data   RW         4597    .data               task_com.o
    0x200000e0   COMPRESSED   0x00000321   Data   RW         4685    .data               task_gui.o
    0x20000401   COMPRESSED   0x00000003   PAD
    0x20000404   COMPRESSED   0x00000030   Data   RW         4959    .data               task_dose.o
    0x20000434   COMPRESSED   0x0000000f   Data   RW         5033    .data               task_status.o
    0x20000443   COMPRESSED   0x00000001   PAD
    0x20000444   COMPRESSED   0x00000005   Data   RW         5087    .data               task_manage.o
    0x20000449   COMPRESSED   0x00000003   PAD
    0x2000044c   COMPRESSED   0x0000000e   Data   RW         5140    .data               dose.o
    0x2000045a   COMPRESSED   0x00000002   PAD
    0x2000045c        -       0x00000838   Zero   RW         3846    .bss                bsp_uart.o
    0x20000c94        -       0x0000000c   Zero   RW         4164    .bss                bsp_key.o
    0x20000ca0        -       0x000002b4   Zero   RW         4958    .bss                task_dose.o
    0x20000f54        -       0x000001a4   Zero   RW         5139    .bss                dose.o
    0x200010f8        -       0x000012c0   Zero   RW         5222    .bss                gui.o
    0x200023b8        -       0x00000060   Zero   RW         5694    .bss                c_w.l(libspace.o)
    0x20002418        -       0x00000400   Zero   RW          132    HEAP                startup_gd32f10x_hd.o
    0x20002818        -       0x00000600   Zero   RW          131    STACK               startup_gd32f10x_hd.o


==============================================================================

Image component sizes


      Code (inc. data)   RO Data    RW Data    ZI Data      Debug   Object Name

       584         46         22          0          0       3629   bsp_adc.o
       730         40          0          0          0       8028   bsp_eeprom.o
       536         50          0          0          0       3161   bsp_gpio.o
       344         34          0         44         12       3566   bsp_key.o
       954         30          0          0          0       6054   bsp_lcd.o
       188         12          0          0          0       1025   bsp_pwm.o
       818         36          0          0          0       7064   bsp_rtc.o
       688         66          0         12          0       4365   bsp_timer.o
       986         84          0          0       2104       5305   bsp_uart.o
      2206        228          0          0          0       9721   display.o
       772         96          0         14        420       4019   dose.o
       692         10          0          0          0       7396   gd32f10x_adc.o
       332          6          0          0          0       2161   gd32f10x_gpio.o
        78         18          0          0          0       4510   gd32f10x_it.o
       216         28          0          0          0       1756   gd32f10x_misc.o
       460         56          0          0          0       3059   gd32f10x_rcu.o
        88          0          0          0          0       3226   gd32f10x_spi.o
      1364         72          0          0          0      11526   gd32f10x_timer.o
       592         16          0          0          0       9390   gd32f10x_usart.o
      4134         80      21244          0       4800      15008   gui.o
       262         26          0         76          0       4252   main.o
        64         26        304          0       2560        828   startup_gd32f10x_hd.o
        98          0          0          0          0       1858   sys.o
       140         16          0          4          0      23572   sys_config.o
       416         30          0          4          0      49731   system_gd32f10x.o
       284         46          0         84          0       2557   task_com.o
       796         54          0         48        692       6322   task_dose.o
     16398       3830          0        801          0      29463   task_gui.o
       720         98         36          5          0       2956   task_manage.o
       656         80         20         15          0       4135   task_status.o

    ----------------------------------------------------------------------
     36644       5214      21660       1116      10588     239643   Object Totals
         0          0         32          0          0          0   (incl. Generated)
        48          0          2          9          0          0   (incl. Padding)

    ----------------------------------------------------------------------

      Code (inc. data)   RO Data    RW Data    ZI Data      Debug   Library Member Name

        60          8          0          0          0         84   __0sscanf.o
        90          0          0          0          0          0   __dczerorl2.o
         8          0          0          0          0         68   __main.o
       312          4         17          0          0         92   __printf_flags_wp.o
        14          0          0          0          0         68   __printf_wp.o
         0          0          0          0          0          0   __rtentry.o
        12          0          0          0          0          0   __rtentry2.o
         6          0          0          0          0          0   __rtentry4.o
        52          8          0          0          0          0   __scatter.o
        28          0          0          0          0          0   __scatter_zi.o
        28          0          0          0          0         68   _chval.o
        48          6          0          0          0         96   _printf_char_common.o
         6          0          0          0          0          0   _printf_d.o
       120         16          0          0          0         92   _printf_dec.o
         6          0          0          0          0          0   _printf_f.o
      1054          0          0          0          0        216   _printf_fp_dec.o
       128         16          0          0          0         84   _printf_fp_infnan.o
       178          0          0          0          0         88   _printf_intcommon.o
        78          0          0          0          0        108   _printf_pad.o
         0          0          0          0          0          0   _printf_percent.o
         4          0          0          0          0          0   _printf_percent_end.o
        22          0          0          0          0        100   _rserrno.o
       884          4          0          0          0        100   _scanf.o
        64          0          0          0          0         84   _sgetc.o
        10          0          0          0          0         68   _sputc.o
       228          4        148          0          0         96   bigflt0.o
      2152        136          0          0          0        960   btod.o
        18          0          0          0          0         80   exit.o
         6          0          0          0          0        152   heapauxi.o
         0          0          0          0          0          0   indicate_semi.o
        18          0          0          0          0         76   isspace.o
        44         10        272          0          0         76   lc_ctype_c.o
        44         10         28          0          0         76   lc_numeric_c.o
         2          0          0          0          0          0   libinit.o
        30          0          0          0          0          0   libinit2.o
         2          0          0          0          0          0   libshutdown.o
         2          0          0          0          0          0   libshutdown2.o
         8          4          0          0         96         68   libspace.o
        38          0          0          0          0         68   llshl.o
       138          0          0          0          0         80   lludiv10.o
        88          0          0          0          0         76   memcmp.o
        40          6          0          0          0         84   noretval__2sprintf.o
        16          4          0          0          0         76   rt_ctype_table.o
         8          4          0          0          0         68   rt_errno_addr_intlibspace.o
         8          4          0          0          0         68   rt_locale_intlibspace.o
        68          0          0          0          0         68   rt_memclr.o
        78          0          0          0          0         80   rt_memclr_w.o
       138          0          0          0          0         68   rt_memcpy_v6.o
       100          0          0          0          0         80   rt_memcpy_w.o
         2          0          0          0          0          0   rtexit.o
        10          0          0          0          0          0   rtexit2.o
        44          8          0          0          0         84   scanf_char.o
      1272         16          0          0          0        168   scanf_fp.o
       800         14          0          0          0        100   scanf_hexfp.o
       308         16          0          0          0        100   scanf_infnan.o
       128          0          0          0          0         68   strcmpv7m.o
        62          0          0          0          0         76   strlen.o
        12          4          0          0          0         68   sys_exit.o
        74          0          0          0          0         80   sys_stackheap_outer.o
         2          0          0          0          0         68   use_no_semi.o
        98          4          0          0          0         92   d2f.o
        16          4          0          0          0         68   dcheck1.o
        24          0          0          0          0         68   dcmpi.o
       120          4          0          0          0         92   deqf.o
       120          4          0          0          0         92   dleqf.o
       340         12          0          0          0        104   dmul.o
       156          4          0          0          0         92   dnaninf.o
        12          0          0          0          0         68   dretinf.o
       108          0          0          0          0         80   drleqf.o
        86          4          0          0          0         84   f2d.o
       430          8          0          0          0        168   faddsub_clz.o
        24          0          0          0          0         68   fcmpi.o
       388         76          0          0          0         96   fdiv.o
       104          4          0          0          0         84   feqf.o
        62          4          0          0          0         84   ffixu.o
        38          0          0          0          0         68   fflt_clz.o
       104          4          0          0          0         84   fleqf.o
       258          4          0          0          0         84   fmul.o
       140          4          0          0          0         84   fnaninf.o
         0          0         16          0          0          0   fpconst.o
        10          0          0          0          0         68   fretinf.o
        98          0          0          0          0         68   frleqf.o
         6          0          0          0          0         68   istatus.o
         4          0          0          0          0         68   printf1.o
       100          0          0          0          0         68   retnan.o
        92          0          0          0          0         68   scalbn.o
         4          0          0          0          0         68   scanf1.o
         8          0          0          0          0         84   scanf2.o
        48          0          0          0          0         68   trapv.o
         0          0          0          0          0          0   usenofp.o
        30          6          0          0          0        136   dunder.o
        40          0          0          0          0         68   fpclassify.o
        88          8          0          0          0         76   frexp.o
       138          0          0          0          0        160   ldexp.o
       204          4          0          0          0        168   narrow.o

    ----------------------------------------------------------------------
     12728        462        484          0         96       7524   Library Totals
        30          2          3          0          0          0   (incl. Padding)

    ----------------------------------------------------------------------

      Code (inc. data)   RO Data    RW Data    ZI Data      Debug   Library Name

      9200        302        465          0         96       4628   c_w.l
      2998        140         16          0          0       2288   fz_ws.l
       500         18          0          0          0        608   m_ws.l

    ----------------------------------------------------------------------
     12728        462        484          0         96       7524   Library Totals

    ----------------------------------------------------------------------

==============================================================================


      Code (inc. data)   RO Data    RW Data    ZI Data      Debug   

     49372       5676      22144       1116      10684     229119   Grand Totals
     49372       5676      22144        708      10684     229119   ELF Image Totals (compressed)
     49372       5676      22144        708          0          0   ROM Totals

==============================================================================

    Total RO  Size (Code + RO Data)                71516 (  69.84kB)
    Total RW  Size (RW Data + ZI Data)             11800 (  11.52kB)
    Total ROM Size (Code + RO Data + RW Data)      72224 (  70.53kB)

==============================================================================

